(dp0
I1
(dp1
S'data'
p2
(lp3
S'00:119334 2 90'
p4
aS'00:139958 2 90'
p5
aS'00:139958 2 90'
p6
aS'00:160587 3 90'
p7
aS'00:304882 2 90'
p8
aS'00:304882 2 90'
p9
aS'00:325532 2 90'
p10
aS'00:325532 2 90'
p11
aS'00:346187 2 90'
p12
aS'00:346187 2 90'
p13
aS'00:366813 2 90'
p14
aS'00:366813 2 90'
p15
aS'00:387445 2 92'
p16
aS'00:387445 2 97'
p17
aS'00:408140 2 102'
p18
aS'00:408140 2 107'
p19
aS'00:408140 2 113'
p20
aS'00:428769 2 118'
p21
aS'00:428769 2 122'
p22
aS'00:428769 2 125'
p23
aS'00:449963 2 128'
p24
aS'00:449963 3 90'
p25
aS'00:449963 2 132'
p26
aS'00:449963 3 90'
p27
aS'00:472007 2 133'
p28
aS'00:472007 3 90'
p29
aS'00:472007 2 135'
p30
aS'00:472007 3 90'
p31
aS'00:472007 2 136'
p32
aS'00:472007 3 90'
p33
aS'00:494864 3 90'
p34
aS'00:494864 3 90'
p35
aS'00:494864 3 90'
p36
aS'00:516781 3 91'
p37
aS'00:516781 3 93'
p38
aS'00:516781 3 94'
p39
aS'00:538310 3 95'
p40
aS'00:559076 3 96'
p41
aS'00:579725 2 133'
p42
aS'00:600415 2 132'
p43
aS'00:600415 2 130'
p44
aS'00:600415 3 99'
p45
aS'00:622064 2 125'
p46
aS'00:622064 2 122'
p47
aS'00:622064 3 102'
p48
aS'00:622064 2 118'
p49
aS'00:644163 2 113'
p50
aS'00:644163 3 103'
p51
aS'00:644163 2 109'
p52
aS'00:644163 3 104'
p53
aS'00:644163 2 106'
p54
aS'00:644163 3 106'
p55
aS'00:666991 2 101'
p56
aS'00:666991 3 107'
p57
aS'00:666991 2 97'
p58
aS'00:666991 3 109'
p59
aS'00:666991 2 95'
p60
aS'00:666991 3 109'
p61
aS'00:689929 2 92'
p62
aS'00:689929 2 90'
p63
aS'00:711104 2 90'
p64
aS'00:711104 3 109'
p65
aS'00:711104 2 90'
p66
aS'00:711104 3 107'
p67
aS'00:711104 2 90'
p68
aS'00:733529 2 90'
p69
aS'00:733529 3 106'
p70
aS'00:733529 3 104'
p71
aS'00:755078 2 90'
p72
aS'00:775708 3 103'
p73
aS'00:837658 2 90'
p74
aS'00:837658 3 102'
p75
aS'00:858292 3 100'
p76
aS'00:858292 2 90'
p77
aS'00:879047 3 99'
p78
aS'00:879047 2 90'
p79
aS'00:879047 3 97'
p80
aS'00:879047 2 90'
p81
aS'00:879047 3 95'
p82
aS'00:901613 3 94'
p83
aS'00:901613 3 93'
p84
aS'00:901613 3 90'
p85
aS'00:923333 3 90'
p86
aS'00:923333 3 90'
p87
aS'00:923333 3 90'
p88
aS'00:945095 3 90'
p89
aS'00:945095 3 90'
p90
aS'00:966160 3 90'
p91
aS'01:028316 2 90'
p92
aS'01:028316 2 90'
p93
aS'01:048954 2 90'
p94
asS'name'
p95
S'thing'
p96
ssI2
(dp97
S'data'
p98
(lp99
S'00:217515 0 90'
p100
aS'00:258862 0 90'
p101
aS'00:279436 0 90'
p102
aS'00:300314 0 90'
p103
aS'00:300314 3 90'
p104
aS'00:300314 2 90'
p105
aS'00:321887 0 90'
p106
aS'00:321887 2 90'
p107
aS'00:321887 3 90'
p108
aS'00:321887 0 90'
p109
aS'00:321887 2 90'
p110
aS'00:321887 3 90'
p111
aS'00:321887 0 90'
p112
aS'00:321887 2 90'
p113
aS'00:321887 3 90'
p114
aS'00:346107 0 90'
p115
aS'00:346107 1 90'
p116
aS'00:346107 2 90'
p117
aS'00:346107 3 90'
p118
aS'00:346107 0 89'
p119
aS'00:346107 1 90'
p120
aS'00:346107 2 90'
p121
aS'00:346107 0 85'
p122
aS'00:346107 1 90'
p123
aS'00:346107 2 92'
p124
aS'00:346107 3 90'
p125
aS'00:371667 0 84'
p126
aS'00:371667 1 90'
p127
aS'00:371667 2 94'
p128
aS'00:371667 0 83'
p129
aS'00:393727 0 81'
p130
aS'00:393727 1 90'
p131
aS'00:393727 0 79'
p132
aS'00:393727 1 90'
p133
aS'00:415960 0 77'
p134
aS'00:415960 0 75'
p135
aS'00:415960 1 90'
p136
aS'00:540823 0 74'
p137
aS'00:540823 3 90'
p138
aS'00:561474 1 92'
p139
aS'00:582068 2 90'
p140
aS'00:602666 2 90'
p141
aS'00:602666 3 90'
p142
aS'00:602666 2 90'
p143
aS'00:623281 2 90'
p144
aS'00:623281 2 90'
p145
aS'00:643965 2 90'
p146
aS'00:643965 2 90'
p147
aS'00:665081 2 90'
p148
aS'00:685768 2 90'
p149
aS'00:706386 2 90'
p150
aS'00:706386 3 90'
p151
aS'00:727713 1 90'
p152
aS'00:748406 3 90'
p153
aS'00:789651 3 90'
p154
aS'00:810272 2 90'
p155
aS'00:830969 3 91'
p156
aS'00:830969 1 90'
p157
aS'00:851952 2 90'
p158
aS'00:872650 2 90'
p159
aS'00:893426 2 90'
p160
aS'00:893426 2 90'
p161
aS'00:914548 2 90'
p162
aS'00:914548 3 93'
p163
aS'00:914548 2 90'
p164
aS'00:914548 2 90'
p165
aS'00:936619 2 90'
p166
aS'00:936619 2 90'
p167
aS'00:936619 2 90'
p168
aS'00:958207 2 88'
p169
aS'00:958207 2 86'
p170
aS'00:979694 2 85'
p171
aS'00:979694 3 94'
p172
aS'00:979694 2 84'
p173
aS'00:979694 2 83'
p174
aS'01:001707 2 81'
p175
aS'01:001707 2 79'
p176
aS'01:022832 3 95'
p177
aS'01:043579 3 96'
p178
aS'01:043579 3 97'
p179
aS'01:064776 1 90'
p180
aS'01:085437 0 77'
p181
aS'01:085437 3 99'
p182
aS'01:106662 0 79'
p183
aS'01:106662 0 83'
p184
aS'01:106662 2 83'
p185
aS'01:106662 0 84'
p186
aS'01:149733 3 100'
p187
aS'01:170364 0 85'
p188
aS'01:190972 3 102'
p189
aS'01:211627 3 103'
p190
aS'01:211627 3 104'
p191
aS'01:232420 3 106'
p192
aS'01:232420 0 87'
p193
aS'01:232420 3 107'
p194
aS'01:254096 1 90'
p195
aS'01:254096 3 109'
p196
aS'01:254096 3 109'
p197
aS'01:275599 3 110'
p198
aS'01:275599 3 112'
p199
aS'01:296623 3 113'
p200
aS'01:317436 1 90'
p201
aS'01:338231 3 115'
p202
aS'01:338231 1 92'
p203
aS'01:359863 2 84'
p204
aS'01:359863 1 93'
p205
aS'01:381015 3 112'
p206
aS'01:381015 1 95'
p207
aS'01:381015 3 110'
p208
aS'01:402519 1 96'
p209
aS'01:402519 3 109'
p210
aS'01:423633 3 109'
p211
aS'01:444352 3 107'
p212
aS'01:465161 3 106'
p213
aS'01:465161 0 89'
p214
aS'01:465161 1 97'
p215
aS'01:465161 3 104'
p216
aS'01:487181 3 103'
p217
aS'01:487181 2 81'
p218
aS'01:508239 3 102'
p219
aS'01:508239 2 79'
p220
aS'01:508239 3 100'
p221
aS'01:529895 2 78'
p222
aS'01:529895 2 76'
p223
aS'01:551113 2 75'
p224
aS'01:571668 2 73'
p225
aS'01:571668 2 71'
p226
aS'01:592951 2 71'
p227
aS'01:592951 2 69'
p228
aS'01:592951 1 98'
p229
aS'01:676341 2 68'
p230
aS'01:676341 3 103'
p231
aS'01:696977 3 104'
p232
aS'01:696977 2 66'
p233
aS'01:696977 3 106'
p234
aS'01:717588 3 107'
p235
aS'01:717588 1 100'
p236
aS'01:717588 3 109'
p237
aS'01:739284 1 97'
p238
aS'01:780689 1 96'
p239
aS'01:780689 2 64'
p240
aS'01:801443 3 109'
p241
aS'01:904744 3 110'
p242
aS'02:007760 2 63'
p243
aS'02:007760 0 90'
p244
aS'02:028397 1 95'
p245
aS'02:028397 2 61'
p246
aS'02:028397 2 58'
p247
aS'02:028397 0 90'
p248
aS'02:028397 2 56'
p249
aS'02:028397 3 112'
p250
aS'02:049014 2 54'
p251
aS'02:049014 0 90'
p252
aS'02:049014 3 115'
p253
aS'02:049014 1 93'
p254
aS'02:049014 2 51'
p255
aS'02:070647 0 90'
p256
aS'02:070647 2 50'
p257
aS'02:091808 0 90'
p258
aS'02:091808 1 92'
p259
aS'02:154132 3 116'
p260
aS'02:236721 1 95'
p261
aS'02:298581 1 96'
p262
aS'02:319222 2 53'
p263
aS'02:319222 0 90'
p264
aS'02:319222 2 54'
p265
aS'02:339850 0 90'
p266
aS'02:339850 2 56'
p267
aS'02:339850 1 97'
p268
aS'02:360479 1 98'
p269
aS'02:360479 2 58'
p270
aS'02:360479 3 118'
p271
aS'02:360479 2 60'
p272
aS'02:381672 2 63'
p273
aS'02:381672 2 64'
p274
aS'02:381672 2 66'
p275
aS'02:403273 0 90'
p276
aS'02:403273 2 68'
p277
aS'02:403273 2 69'
p278
aS'02:424850 2 71'
p279
aS'02:424850 2 71'
p280
aS'02:424850 2 73'
p281
aS'02:446440 2 78'
p282
aS'02:446440 2 81'
p283
aS'02:467668 2 83'
p284
aS'02:467668 2 85'
p285
aS'02:467668 0 90'
p286
aS'02:489261 2 86'
p287
aS'02:489261 2 88'
p288
aS'02:489261 3 119'
p289
aS'02:510961 2 90'
p290
aS'02:510961 2 90'
p291
aS'02:532130 0 89'
p292
aS'02:532130 2 90'
p293
aS'02:532130 2 90'
p294
aS'02:553893 2 90'
p295
aS'02:553893 0 87'
p296
aS'02:574926 2 90'
p297
aS'02:595612 3 116'
p298
aS'02:616430 3 115'
p299
aS'02:637109 0 85'
p300
aS'02:637109 2 90'
p301
aS'02:658287 2 90'
p302
aS'02:678935 3 113'
p303
aS'02:720292 2 90'
p304
aS'02:720292 2 90'
p305
aS'02:740932 2 90'
p306
aS'02:782339 2 90'
p307
aS'02:802931 0 84'
p308
aS'02:802931 3 112'
p309
aS'02:865229 3 110'
p310
aS'02:865229 2 90'
p311
aS'02:885871 2 90'
p312
aS'02:885871 2 90'
p313
aS'02:906472 0 83'
p314
aS'02:906472 2 90'
p315
aS'02:906472 3 109'
p316
aS'02:906472 2 90'
p317
aS'02:928439 2 90'
p318
aS'02:928439 2 90'
p319
aS'02:928439 3 109'
p320
aS'02:950212 0 81'
p321
aS'02:970873 2 90'
p322
aS'02:991609 1 100'
p323
aS'02:991609 2 92'
p324
aS'02:991609 0 79'
p325
aS'03:013219 2 94'
p326
aS'03:013219 2 95'
p327
aS'03:013219 0 77'
p328
aS'03:034986 1 101'
p329
aS'03:034986 2 96'
p330
aS'03:034986 2 97'
p331
aS'03:034986 2 99'
p332
aS'03:056887 2 101'
p333
aS'03:077508 2 102'
p334
aS'03:098255 0 75'
p335
aS'03:139718 2 104'
p336
aS'03:160304 0 74'
p337
aS'03:180899 2 106'
p338
aS'03:284054 2 107'
p339
aS'03:345985 2 109'
p340
aS'03:366620 2 110'
p341
aS'03:387243 0 72'
p342
aS'03:387243 2 111'
p343
aS'03:407856 2 113'
p344
aS'03:428461 2 115'
p345
aS'03:428461 2 116'
p346
aS'03:449099 1 98'
p347
aS'03:449099 2 118'
p348
aS'03:449099 3 112'
p349
aS'03:490350 1 97'
p350
aS'03:511036 1 100'
p351
aS'03:531640 1 101'
p352
aS'03:531640 1 103'
p353
aS'03:531640 0 75'
p354
aS'03:531640 1 104'
p355
aS'03:552553 0 77'
p356
aS'03:552553 1 106'
p357
aS'03:552553 0 81'
p358
aS'03:552553 1 108'
p359
aS'03:552553 0 83'
p360
aS'03:552553 1 109'
p361
aS'03:552553 3 113'
p362
aS'03:575853 0 84'
p363
aS'03:575853 1 110'
p364
aS'03:575853 1 111'
p365
aS'03:575853 3 115'
p366
aS'03:575853 1 113'
p367
aS'03:598380 0 85'
p368
aS'03:598380 1 114'
p369
aS'03:598380 3 116'
p370
aS'03:598380 1 116'
p371
aS'03:620436 1 117'
p372
aS'03:641128 0 87'
p373
aS'03:682438 1 119'
p374
aS'03:703003 1 120'
p375
aS'03:703003 0 89'
p376
aS'03:723911 1 122'
p377
aS'03:723911 1 122'
p378
aS'03:786286 0 90'
p379
aS'03:827510 3 118'
p380
aS'03:868829 0 90'
p381
aS'03:868829 0 90'
p382
aS'03:889496 0 90'
p383
aS'03:910098 0 90'
p384
aS'03:951284 0 90'
p385
aS'03:951284 1 124'
p386
aS'03:992506 0 90'
p387
aS'04:013115 0 90'
p388
aS'04:013115 0 90'
p389
aS'04:033750 1 122'
p390
aS'04:095635 0 90'
p391
aS'04:116288 3 119'
p392
aS'04:116288 1 120'
p393
aS'04:157540 1 119'
p394
aS'04:580566 3 116'
p395
aS'04:580566 1 117'
p396
aS'04:580566 3 115'
p397
aS'04:601162 3 113'
p398
asS'name'
p399
S'thisiswierd'
p400
ssI3
(dp401
S'data'
p402
(lp403
S'00:077856 3 90'
p404
aS'00:222511 1 90'
p405
aS'00:222511 1 90'
p406
aS'00:243149 1 90'
p407
aS'00:243149 1 90'
p408
aS'00:263809 3 90'
p409
aS'00:263809 1 90'
p410
aS'00:263809 1 90'
p411
aS'00:284410 1 90'
p412
aS'00:284410 1 90'
p413
aS'00:284410 1 88'
p414
aS'00:305034 1 86'
p415
aS'00:305034 2 90'
p416
aS'00:305034 1 84'
p417
aS'00:325630 1 84'
p418
aS'00:325630 0 90'
p419
aS'00:325630 1 82'
p420
aS'00:347415 0 90'
p421
aS'00:347415 1 78'
p422
aS'00:347415 1 75'
p423
aS'00:368951 1 71'
p424
aS'00:368951 0 90'
p425
aS'00:368951 1 69'
p426
aS'00:368951 1 67'
p427
aS'00:391018 1 65'
p428
aS'00:391018 0 90'
p429
aS'00:412581 1 64'
p430
aS'00:557083 1 67'
p431
aS'00:618960 3 90'
p432
aS'00:639678 3 90'
p433
aS'00:639678 2 90'
p434
aS'00:639678 3 90'
p435
aS'00:660301 2 92'
p436
aS'00:660301 2 94'
p437
aS'00:660301 3 90'
p438
aS'00:660301 2 95'
p439
aS'00:680914 1 69'
p440
aS'00:680914 3 90'
p441
aS'00:680914 2 96'
p442
aS'00:680914 3 90'
p443
aS'00:701985 3 90'
p444
aS'00:701985 2 97'
p445
aS'00:701985 3 90'
p446
aS'00:744085 3 88'
p447
aS'00:909306 2 95'
p448
aS'00:929972 3 86'
p449
aS'00:950562 3 85'
p450
aS'00:950562 3 84'
p451
aS'00:971205 2 94'
p452
aS'00:971205 1 65'
p453
aS'00:991846 3 83'
p454
aS'00:991846 3 85'
p455
aS'01:012485 1 64'
p456
aS'01:012485 3 83'
p457
aS'01:033166 2 92'
p458
aS'01:053741 2 90'
p459
aS'01:053741 2 90'
p460
aS'01:074371 2 90'
p461
aS'01:094953 3 85'
p462
aS'01:094953 3 86'
p463
aS'01:115662 2 90'
p464
aS'01:177630 2 90'
p465
aS'01:301355 2 90'
p466
aS'01:342522 2 90'
p467
aS'01:383790 3 84'
p468
aS'01:404394 3 83'
p469
aS'01:502447 3 81'
p470
aS'01:543648 3 79'
p471
aS'01:626188 3 78'
p472
aS'01:646810 3 76'
p473
aS'01:646810 3 75'
p474
aS'01:646810 3 73'
p475
aS'01:667436 3 71'
p476
aS'01:667436 3 71'
p477
aS'01:688082 2 90'
p478
aS'01:688082 2 90'
p479
aS'01:729389 0 90'
p480
aS'01:729389 2 90'
p481
aS'01:750096 1 62'
p482
aS'01:770835 1 60'
p483
aS'01:791627 3 73'
p484
aS'01:791627 0 91'
p485
aS'01:791627 1 58'
p486
aS'01:813270 1 58'
p487
aS'01:813270 3 75'
p488
aS'01:813270 1 56'
p489
aS'01:835085 3 76'
p490
aS'01:835085 1 54'
p491
aS'01:856281 0 92'
p492
aS'01:856281 1 52'
p493
aS'01:856281 3 78'
p494
aS'01:856281 1 51'
p495
aS'01:878487 0 94'
p496
aS'01:878487 1 49'
p497
aS'01:878487 3 79'
p498
aS'01:878487 3 81'
p499
aS'01:962409 3 83'
p500
aS'02:003665 3 84'
p501
aS'02:003665 0 96'
p502
aS'02:024298 3 85'
p503
aS'02:024298 3 86'
p504
aS'02:065554 1 52'
p505
aS'02:065554 3 88'
p506
aS'02:086213 3 90'
p507
aS'02:127470 2 90'
p508
aS'02:168744 0 96'
p509
aS'02:230600 3 86'
p510
aS'02:251229 1 54'
p511
aS'02:333693 2 90'
p512
aS'02:411036 1 56'
p513
aS'02:432153 3 90'
p514
aS'02:473624 1 58'
p515
aS'02:473624 2 92'
p516
aS'02:473624 3 90'
p517
aS'02:473624 0 98'
p518
aS'02:515885 1 58'
p519
aS'02:515885 3 90'
p520
aS'02:536516 3 90'
p521
aS'02:536516 1 60'
p522
aS'02:536516 3 90'
p523
aS'02:536516 3 90'
p524
aS'02:558705 1 62'
p525
aS'02:558705 3 90'
p526
aS'02:600338 3 90'
p527
aS'02:682972 1 64'
p528
aS'02:786160 3 90'
p529
aS'02:806776 3 90'
p530
aS'02:884183 3 90'
p531
aS'02:925650 3 90'
p532
aS'02:987492 0 99'
p533
aS'03:049586 2 90'
p534
aS'03:070238 2 90'
p535
aS'03:070238 2 90'
p536
aS'03:070238 3 90'
p537
aS'03:090884 2 90'
p538
aS'03:090884 2 90'
p539
aS'03:111525 2 90'
p540
aS'03:132155 2 90'
p541
aS'03:132155 3 90'
p542
aS'03:132155 2 90'
p543
aS'03:153175 3 90'
p544
aS'03:153175 0 101'
p545
aS'03:153175 2 90'
p546
aS'03:153175 3 90'
p547
aS'03:153175 3 90'
p548
aS'03:175694 0 103'
p549
aS'03:196354 3 90'
p550
aS'03:196354 0 104'
p551
aS'03:418772 3 90'
p552
aS'03:439700 2 90'
p553
aS'03:501837 0 106'
p554
aS'03:501837 2 90'
p555
aS'03:522461 3 90'
p556
aS'03:604981 2 90'
p557
aS'03:625618 2 90'
p558
aS'03:625618 2 90'
p559
aS'03:625618 3 90'
p560
aS'03:646256 2 90'
p561
aS'03:666877 1 65'
p562
aS'03:666877 1 67'
p563
aS'03:708600 2 90'
p564
aS'03:708600 3 90'
p565
aS'03:729238 3 90'
p566
aS'03:749919 1 69'
p567
aS'03:749919 1 71'
p568
aS'03:771074 1 71'
p569
aS'03:771074 1 73'
p570
aS'03:771074 1 75'
p571
aS'03:792615 1 77'
p572
aS'03:792615 3 90'
p573
aS'03:792615 0 103'
p574
aS'03:792615 1 80'
p575
aS'03:792615 3 90'
p576
aS'03:815130 0 101'
p577
aS'03:815130 1 82'
p578
aS'03:836515 0 99'
p579
aS'03:836515 1 84'
p580
aS'03:857658 1 84'
p581
aS'03:878308 1 86'
p582
aS'03:898951 1 88'
p583
aS'03:919667 3 90'
p584
aS'03:961003 3 90'
p585
aS'04:002223 3 90'
p586
aS'04:002223 0 98'
p587
aS'04:043530 0 96'
p588
aS'04:105442 2 90'
p589
aS'04:126075 2 90'
p590
aS'04:146721 2 90'
p591
aS'04:167322 2 90'
p592
aS'04:187942 2 88'
p593
aS'04:187942 2 86'
p594
aS'04:208541 2 85'
p595
aS'04:229170 2 84'
p596
aS'04:229170 2 83'
p597
aS'04:229170 3 90'
p598
aS'04:250550 2 81'
p599
aS'04:250550 3 90'
p600
aS'04:250550 2 78'
p601
aS'04:272181 3 90'
p602
aS'04:458227 3 90'
p603
aS'04:478874 3 90'
p604
aS'04:478874 3 90'
p605
aS'04:499523 1 84'
p606
aS'04:520146 3 90'
p607
aS'04:520146 1 84'
p608
aS'04:520146 3 91'
p609
aS'04:540768 3 93'
p610
aS'04:561474 1 82'
p611
aS'04:623421 3 90'
p612
aS'04:644081 1 80'
p613
aS'04:664718 3 90'
p614
aS'04:685312 3 90'
p615
aS'04:685312 2 76'
p616
aS'04:705967 2 75'
p617
aS'04:705967 3 90'
p618
aS'04:726606 2 73'
p619
aS'04:726606 2 71'
p620
aS'04:726606 3 90'
p621
aS'04:726606 1 78'
p622
aS'04:747353 2 71'
p623
aS'04:747353 1 77'
p624
aS'04:789235 1 75'
p625
aS'04:830513 3 90'
p626
aS'04:913004 3 90'
p627
aS'04:933596 2 69'
p628
aS'04:933596 2 68'
p629
aS'04:954251 2 66'
p630
aS'04:995425 2 64'
p631
aS'04:995425 3 90'
p632
aS'04:995425 2 63'
p633
aS'05:016023 2 61'
p634
aS'05:016023 0 99'
p635
aS'05:016023 3 90'
p636
aS'05:036894 2 60'
p637
aS'05:036894 3 90'
p638
aS'05:161279 1 73'
p639
aS'05:161279 3 91'
p640
aS'05:223197 3 90'
p641
aS'05:223197 2 63'
p642
aS'05:223197 2 66'
p643
aS'05:243848 3 90'
p644
aS'05:243848 2 68'
p645
aS'05:285131 2 69'
p646
aS'05:285131 2 71'
p647
aS'05:305796 1 71'
p648
aS'05:305796 2 71'
p649
aS'05:305796 3 90'
p650
aS'05:326476 2 73'
p651
aS'05:347155 2 75'
p652
aS'05:367941 2 76'
p653
aS'05:388636 2 78'
p654
aS'05:388636 2 79'
p655
aS'05:409841 2 81'
p656
aS'05:409841 2 83'
p657
aS'05:409841 2 84'
p658
aS'05:431531 2 85'
p659
aS'05:431531 2 86'
p660
aS'05:452537 3 90'
p661
aS'05:473102 2 88'
p662
aS'05:514637 3 90'
p663
aS'05:514637 2 90'
p664
aS'05:514637 3 90'
p665
aS'05:535710 2 90'
p666
aS'05:535710 3 90'
p667
aS'05:556954 2 90'
p668
aS'05:556954 2 90'
p669
aS'05:556954 3 90'
p670
aS'05:578454 2 90'
p671
aS'05:578454 3 90'
p672
aS'05:578454 2 90'
p673
aS'05:578454 2 90'
p674
aS'05:578454 3 90'
p675
aS'05:621634 2 90'
p676
aS'05:642286 3 90'
p677
aS'05:683514 2 90'
p678
aS'05:683514 3 90'
p679
aS'05:704151 2 90'
p680
aS'05:704151 2 90'
p681
aS'05:724824 3 90'
p682
aS'05:807415 3 90'
p683
aS'05:828046 2 90'
p684
aS'05:910748 2 90'
p685
aS'05:910748 2 90'
p686
aS'05:931424 2 90'
p687
aS'05:931424 2 90'
p688
aS'05:931424 2 90'
p689
aS'05:952023 2 90'
p690
aS'05:952023 2 92'
p691
aS'05:972644 3 90'
p692
aS'05:993224 2 94'
p693
aS'06:034413 2 95'
p694
aS'06:055038 2 96'
p695
aS'06:055038 2 97'
p696
aS'06:075711 2 99'
p697
aS'06:075711 2 101'
p698
aS'06:075711 3 90'
p699
aS'06:096745 2 102'
p700
aS'06:096745 2 104'
p701
aS'06:241745 3 90'
p702
aS'06:262391 2 106'
p703
aS'06:401688 2 107'
p704
aS'06:401688 3 91'
p705
aS'06:422319 2 110'
p706
aS'06:422319 2 113'
p707
aS'06:422319 3 93'
p708
aS'06:443708 2 115'
p709
aS'06:443708 3 94'
p710
aS'06:443708 2 116'
p711
aS'06:443708 1 71'
p712
aS'06:443708 2 119'
p713
aS'06:466188 2 121'
p714
aS'06:466188 3 95'
p715
aS'06:466188 2 122'
p716
aS'06:466188 2 123'
p717
aS'06:466188 3 96'
p718
aS'06:571293 0 96'
p719
aS'06:591964 1 73'
p720
aS'06:612543 3 94'
p721
aS'06:653861 0 96'
p722
aS'06:674514 1 75'
p723
aS'06:695146 0 94'
p724
aS'06:695146 1 77'
p725
aS'06:695146 1 78'
p726
aS'06:715790 2 121'
p727
aS'06:715790 1 82'
p728
aS'06:715790 0 92'
p729
aS'06:715790 1 84'
p730
aS'06:736907 2 119'
p731
aS'06:736907 0 91'
p732
aS'06:736907 1 86'
p733
aS'06:736907 1 88'
p734
aS'06:758969 0 90'
p735
aS'06:779643 0 90'
p736
aS'06:779643 2 118'
p737
aS'06:800916 3 96'
p738
aS'06:800916 3 97'
p739
aS'06:800916 2 116'
p740
aS'06:822383 3 99'
p741
aS'06:843082 3 100'
p742
aS'06:843082 3 102'
p743
aS'06:843082 2 115'
p744
aS'06:864643 1 84'
p745
aS'06:947299 2 113'
p746
aS'06:967922 1 84'
p747
aS'06:988555 1 82'
p748
aS'07:009196 0 91'
p749
aS'07:009196 3 99'
p750
aS'07:029885 1 80'
p751
aS'07:029885 1 78'
p752
aS'07:029885 3 97'
p753
aS'07:050578 1 77'
p754
aS'07:050578 2 116'
p755
aS'07:050578 1 75'
p756
aS'07:072556 3 96'
p757
aS'07:072556 1 73'
p758
aS'07:072556 3 95'
p759
aS'07:072556 3 94'
p760
aS'07:094680 1 71'
p761
aS'07:115449 3 93'
p762
aS'07:136358 1 71'
p763
aS'07:177603 2 118'
p764
aS'07:177603 2 119'
p765
aS'07:621858 3 96'
p766
aS'07:642535 3 97'
p767
aS'07:683747 1 73'
p768
aS'07:725001 1 75'
p769
aS'07:807552 3 99'
p770
aS'07:869438 1 77'
p771
aS'07:869438 3 100'
p772
aS'07:890126 1 78'
p773
aS'07:910721 2 116'
p774
aS'07:910721 2 115'
p775
aS'07:910721 3 102'
p776
aS'07:931322 2 113'
p777
aS'07:931322 3 103'
p778
aS'07:931322 2 111'
p779
aS'07:972569 2 110'
p780
aS'07:972569 2 109'
p781
aS'07:993197 3 104'
p782
aS'08:013854 0 92'
p783
aS'08:013854 2 107'
p784
aS'08:034470 2 106'
p785
aS'08:034470 2 104'
p786
aS'08:055266 2 102'
p787
aS'08:055266 2 101'
p788
aS'08:076391 2 99'
p789
aS'08:076391 3 106'
p790
aS'08:118419 3 107'
p791
aS'08:319649 3 104'
p792
aS'08:319649 2 102'
p793
aS'08:402905 3 103'
p794
aS'08:444190 2 99'
p795
aS'08:444190 3 102'
p796
aS'08:464846 2 97'
p797
aS'08:485456 2 96'
p798
aS'08:506108 2 95'
p799
aS'08:506108 2 94'
p800
aS'08:526686 1 75'
p801
aS'08:526686 2 92'
p802
aS'08:526686 2 90'
p803
aS'08:609206 3 106'
p804
aS'08:629844 0 94'
p805
aS'08:831092 3 103'
p806
aS'08:893040 0 91'
p807
aS'09:238667 3 102'
p808
aS'09:336648 3 100'
p809
aS'09:336648 2 90'
p810
aS'09:357325 2 90'
p811
aS'09:357325 2 90'
p812
aS'09:378113 2 90'
p813
aS'09:378113 3 99'
p814
aS'09:399235 2 90'
p815
aS'09:419872 2 90'
p816
aS'09:419872 2 90'
p817
aS'09:440920 3 97'
p818
aS'09:663171 1 78'
p819
aS'09:905623 3 96'
p820
aS'09:926259 0 94'
p821
aS'09:926259 2 90'
p822
aS'09:926259 3 95'
p823
aS'09:948178 3 94'
p824
aS'09:948178 1 75'
p825
aS'09:948178 3 93'
p826
aS'09:969708 3 91'
p827
asS'name'
p828
S'frickinpeople'
p829
ssI4
(dp830
S'data'
p831
(lp832
S'00:016330 3 90'
p833
aS'00:222518 1 90'
p834
aS'00:243164 1 88'
p835
aS'00:263829 1 86'
p836
aS'00:284445 1 84'
p837
aS'00:305058 0 90'
p838
aS'00:305058 1 84'
p839
aS'00:325670 1 82'
p840
aS'00:325670 0 90'
p841
aS'00:366972 3 90'
p842
aS'00:366972 1 80'
p843
aS'00:366972 0 90'
p844
aS'00:408243 2 95'
p845
aS'00:428988 1 78'
p846
aS'00:428988 2 96'
p847
aS'00:428988 1 77'
p848
aS'00:449596 0 91'
p849
aS'00:449596 2 97'
p850
aS'00:449596 3 90'
p851
aS'00:449596 1 75'
p852
aS'00:470245 0 92'
p853
aS'00:470245 2 99'
p854
aS'00:470245 1 73'
p855
aS'00:470245 1 71'
p856
aS'00:492023 0 94'
p857
aS'00:492023 3 90'
p858
aS'00:513202 1 71'
p859
aS'00:513202 2 101'
p860
aS'00:616894 0 96'
p861
aS'00:616894 1 69'
p862
aS'00:658343 1 67'
p863
aS'00:740839 0 96'
p864
aS'00:818169 3 90'
p865
aS'00:818169 1 65'
p866
aS'00:839678 3 90'
p867
aS'00:901639 0 98'
p868
aS'00:922278 3 90'
p869
aS'00:963537 3 90'
p870
aS'01:066573 3 90'
p871
aS'01:087156 3 90'
p872
aS'01:087156 2 97'
p873
aS'01:107779 0 99'
p874
aS'01:128395 2 96'
p875
aS'01:169521 0 101'
p876
aS'01:169521 3 90'
p877
aS'01:190167 1 64'
p878
aS'01:190167 2 95'
p879
aS'01:251990 0 103'
p880
aS'01:293202 0 104'
p881
aS'01:293202 1 62'
p882
aS'01:293202 2 94'
p883
aS'01:313835 3 90'
p884
aS'01:313835 3 90'
p885
aS'01:334444 3 90'
p886
aS'01:355080 1 60'
p887
aS'01:355080 0 106'
p888
aS'01:355080 0 108'
p889
aS'01:355080 3 90'
p890
aS'01:376697 0 109'
p891
aS'01:397445 1 58'
p892
aS'01:438790 3 90'
p893
aS'01:624396 1 58'
p894
aS'01:722322 1 56'
p895
aS'01:763493 1 54'
p896
aS'01:784080 3 90'
p897
aS'01:804695 1 52'
p898
aS'01:804695 3 90'
p899
aS'01:825286 3 90'
p900
aS'01:907757 2 92'
p901
aS'01:907757 3 90'
p902
aS'01:948995 0 106'
p903
aS'01:969637 2 90'
p904
aS'02:010921 3 90'
p905
aS'02:010921 3 90'
p906
aS'02:093451 1 56'
p907
aS'02:134729 1 58'
p908
aS'02:155336 1 58'
p909
aS'02:155336 3 90'
p910
aS'02:196592 1 60'
p911
aS'02:196592 3 90'
p912
aS'02:217238 1 62'
p913
aS'02:237871 3 90'
p914
aS'02:237871 3 90'
p915
aS'02:237871 1 64'
p916
aS'02:237871 3 90'
p917
aS'02:258469 3 90'
p918
aS'02:258469 3 90'
p919
aS'02:258469 3 90'
p920
aS'02:279116 1 65'
p921
aS'02:279116 3 90'
p922
aS'02:300268 0 104'
p923
aS'02:300268 3 90'
p924
aS'02:300268 1 67'
p925
aS'02:300268 3 90'
p926
aS'02:322421 2 94'
p927
aS'02:405058 3 90'
p928
aS'02:466907 3 90'
p929
aS'02:549367 3 90'
p930
aS'02:549367 3 90'
p931
aS'02:569984 3 90'
p932
aS'02:590595 3 90'
p933
aS'02:631864 2 90'
p934
aS'02:771016 3 90'
p935
aS'02:812348 1 64'
p936
aS'02:812348 0 103'
p937
aS'02:832983 1 62'
p938
aS'02:853552 1 60'
p939
aS'02:874213 3 90'
p940
aS'02:894951 3 90'
p941
aS'02:894951 1 58'
p942
aS'02:916037 3 90'
p943
aS'02:957469 1 58'
p944
aS'02:978093 0 101'
p945
aS'02:978093 1 56'
p946
aS'03:040078 3 90'
p947
aS'03:081269 3 90'
p948
aS'03:101849 3 90'
p949
aS'03:101849 3 90'
p950
aS'03:122376 1 58'
p951
aS'03:328748 3 90'
p952
aS'03:406089 1 56'
p953
aS'03:426664 1 54'
p954
aS'03:550482 1 52'
p955
aS'03:653559 1 51'
p956
aS'03:674181 1 49'
p957
aS'03:694794 1 47'
p958
aS'03:694794 1 45'
p959
aS'03:715418 1 45'
p960
aS'03:736031 0 104'
p961
aS'03:736031 1 43'
p962
aS'03:756665 1 41'
p963
aS'03:937057 0 106'
p964
aS'03:937057 0 108'
p965
aS'03:957722 3 90'
p966
aS'03:957722 0 109'
p967
aS'03:957722 3 90'
p968
aS'03:978365 0 110'
p969
aS'03:978365 3 90'
p970
aS'04:040484 3 90'
p971
aS'04:040484 3 90'
p972
aS'04:061097 0 108'
p973
aS'04:061097 3 90'
p974
aS'04:143729 1 39'
p975
aS'04:143729 3 90'
p976
aS'04:164344 1 38'
p977
aS'04:164344 3 90'
p978
aS'04:164344 1 36'
p979
aS'04:164344 3 90'
p980
aS'04:164344 0 110'
p981
aS'04:164344 3 90'
p982
aS'04:186427 3 90'
p983
aS'04:186427 1 34'
p984
aS'04:207592 0 111'
p985
aS'04:207592 3 90'
p986
aS'04:249368 3 90'
p987
aS'04:269930 3 90'
p988
aS'04:269930 1 38'
p989
aS'04:291024 3 90'
p990
aS'04:291024 1 39'
p991
aS'04:291024 3 90'
p992
aS'04:374483 2 94'
p993
aS'04:436469 0 109'
p994
aS'04:436469 0 108'
p995
aS'04:436469 0 106'
p996
aS'04:457082 0 103'
p997
aS'04:457082 0 99'
p998
aS'04:477732 0 96'
p999
aS'04:477732 1 43'
p1000
aS'04:477732 0 94'
p1001
aS'04:477732 1 45'
p1002
aS'04:477732 3 90'
p1003
aS'04:477732 0 92'
p1004
aS'04:477732 1 45'
p1005
aS'04:499880 1 51'
p1006
aS'04:499880 2 95'
p1007
aS'04:499880 0 91'
p1008
aS'04:499880 1 54'
p1009
aS'04:499880 0 90'
p1010
aS'04:499880 1 58'
p1011
aS'04:523013 0 90'
p1012
aS'04:523013 1 58'
p1013
aS'04:523013 1 62'
p1014
aS'04:523013 3 90'
p1015
aS'04:523013 0 90'
p1016
aS'04:523013 1 64'
p1017
aS'04:546128 0 90'
p1018
aS'04:546128 1 65'
p1019
aS'04:546128 3 90'
p1020
aS'04:546128 1 67'
p1021
aS'04:568160 0 90'
p1022
aS'04:790072 0 90'
p1023
aS'04:893516 1 69'
p1024
aS'04:976092 1 65'
p1025
aS'04:976092 1 64'
p1026
aS'05:197812 0 90'
p1027
aS'05:337061 3 90'
p1028
aS'05:337061 3 90'
p1029
aS'05:337061 3 90'
p1030
aS'05:358488 3 90'
p1031
aS'05:379174 3 90'
p1032
aS'05:399909 3 90'
p1033
aS'05:420725 3 90'
p1034
aS'05:420725 2 96'
p1035
aS'05:442314 0 90'
p1036
aS'05:442314 3 90'
p1037
aS'05:442314 2 97'
p1038
aS'05:546587 1 67'
p1039
aS'05:567194 1 69'
p1040
aS'05:567194 1 71'
p1041
aS'05:587812 1 71'
p1042
aS'05:587812 1 77'
p1043
aS'05:587812 1 82'
p1044
aS'05:608430 1 84'
p1045
aS'05:608430 1 86'
p1046
aS'05:608430 2 99'
p1047
aS'05:629998 1 90'
p1048
aS'05:629998 0 90'
p1049
aS'05:629998 1 90'
p1050
aS'05:629998 0 90'
p1051
aS'05:652060 1 90'
p1052
aS'05:652060 3 91'
p1053
aS'05:673584 1 90'
p1054
aS'05:673584 3 93'
p1055
aS'05:673584 1 90'
p1056
aS'05:673584 1 90'
p1057
aS'05:673584 3 95'
p1058
aS'05:696098 3 96'
p1059
aS'05:696098 1 88'
p1060
aS'05:717382 3 97'
p1061
aS'05:738032 1 86'
p1062
aS'05:738032 2 101'
p1063
aS'05:738032 3 99'
p1064
aS'05:780148 3 100'
p1065
aS'05:842028 3 97'
p1066
aS'05:883458 1 84'
p1067
aS'05:883458 3 96'
p1068
aS'05:904070 3 95'
p1069
aS'05:924682 3 94'
p1070
aS'05:986485 1 84'
p1071
aS'05:986485 3 96'
p1072
aS'06:007117 3 97'
p1073
aS'06:027691 3 99'
p1074
aS'06:027691 3 100'
p1075
aS'06:068922 3 102'
p1076
aS'06:068922 3 103'
p1077
aS'06:068922 1 82'
p1078
aS'06:068922 3 104'
p1079
aS'06:090280 3 106'
p1080
aS'06:090280 3 107'
p1081
aS'06:090280 3 109'
p1082
aS'06:111857 1 80'
p1083
aS'06:111857 3 109'
p1084
aS'06:133139 1 78'
p1085
aS'06:133139 0 90'
p1086
aS'06:133139 1 77'
p1087
aS'06:175384 3 107'
p1088
aS'06:175384 3 106'
p1089
aS'06:196098 3 104'
p1090
aS'06:196098 3 103'
p1091
aS'06:217247 3 102'
p1092
aS'06:258556 3 100'
p1093
aS'06:299846 3 99'
p1094
aS'06:382304 3 97'
p1095
aS'06:382304 2 97'
p1096
aS'06:402971 1 78'
p1097
aS'06:402971 2 96'
p1098
aS'06:402971 2 95'
p1099
aS'06:423604 2 94'
p1100
aS'06:423604 3 100'
p1101
aS'06:444225 2 92'
p1102
aS'06:444225 1 80'
p1103
aS'06:444225 2 90'
p1104
aS'06:444225 3 102'
p1105
aS'06:444225 0 90'
p1106
aS'06:467018 2 90'
p1107
aS'06:467018 3 103'
p1108
aS'06:467018 2 90'
p1109
aS'06:488808 1 77'
p1110
aS'06:488808 2 90'
p1111
aS'06:488808 2 90'
p1112
aS'06:695990 3 100'
p1113
aS'06:695990 2 90'
p1114
aS'06:716623 0 90'
p1115
aS'06:778449 3 99'
p1116
aS'06:799081 1 80'
p1117
aS'06:819643 3 97'
p1118
aS'06:840273 2 90'
p1119
aS'06:860914 3 96'
p1120
aS'06:860914 1 82'
p1121
aS'06:917670 3 95'
p1122
aS'07:041743 2 90'
p1123
aS'07:103790 3 97'
p1124
aS'07:103790 3 99'
p1125
aS'07:284350 3 96'
p1126
aS'07:284350 2 90'
p1127
aS'07:304968 2 90'
p1128
aS'07:304968 2 90'
p1129
aS'07:304968 3 99'
p1130
aS'07:325562 1 78'
p1131
aS'07:325562 2 90'
p1132
aS'07:325562 2 90'
p1133
aS'07:325562 3 100'
p1134
aS'07:325562 2 90'
p1135
aS'07:348279 1 77'
p1136
aS'07:348279 0 90'
p1137
aS'07:348279 2 90'
p1138
aS'07:348279 3 102'
p1139
aS'07:370327 2 90'
p1140
aS'07:556167 2 88'
p1141
aS'07:576808 2 86'
p1142
aS'07:576808 3 103'
p1143
aS'07:674959 2 85'
p1144
aS'07:674959 3 100'
p1145
aS'07:674959 2 84'
p1146
aS'07:696431 2 83'
p1147
aS'07:696431 2 81'
p1148
aS'07:717366 2 79'
p1149
aS'07:717366 3 103'
p1150
aS'07:717366 2 78'
p1151
aS'07:738989 0 91'
p1152
aS'07:738989 1 80'
p1153
aS'07:738989 2 76'
p1154
aS'07:738989 2 75'
p1155
aS'07:761117 2 73'
p1156
aS'07:761117 2 71'
p1157
aS'07:761117 3 100'
p1158
aS'07:782759 2 71'
p1159
aS'07:782759 1 82'
p1160
aS'07:804021 1 84'
p1161
aS'07:804021 1 84'
p1162
aS'07:825371 1 86'
p1163
aS'07:825371 1 88'
p1164
aS'07:825371 3 103'
p1165
aS'07:867301 1 90'
p1166
aS'07:908553 1 90'
p1167
aS'07:970425 3 104'
p1168
aS'07:991027 1 90'
p1169
aS'08:011790 0 90'
p1170
aS'08:011790 1 90'
p1171
aS'08:032437 0 90'
p1172
aS'08:073672 3 106'
p1173
aS'08:114933 2 73'
p1174
aS'08:114933 0 90'
p1175
aS'08:135584 1 90'
p1176
aS'08:135584 3 107'
p1177
aS'08:135584 0 90'
p1178
aS'08:135584 1 90'
p1179
aS'08:135584 2 75'
p1180
aS'08:156849 1 90'
p1181
aS'08:156849 2 78'
p1182
aS'08:156849 0 90'
p1183
aS'08:156849 1 90'
p1184
aS'08:156849 1 90'
p1185
aS'08:156849 2 79'
p1186
aS'08:179921 2 81'
p1187
aS'08:179921 2 83'
p1188
aS'08:201157 0 90'
p1189
aS'08:221777 3 104'
p1190
aS'08:283833 1 90'
p1191
aS'08:325038 1 90'
p1192
aS'08:345698 3 107'
p1193
aS'08:345698 0 90'
p1194
aS'08:386951 1 90'
p1195
aS'08:386951 1 90'
p1196
aS'08:407569 3 104'
p1197
aS'08:448818 1 90'
p1198
aS'08:469434 3 103'
p1199
aS'08:469434 2 84'
p1200
aS'08:469434 2 85'
p1201
aS'08:490422 3 102'
p1202
aS'08:490422 2 86'
p1203
aS'08:490422 0 90'
p1204
aS'08:512025 2 88'
p1205
aS'08:512025 2 90'
p1206
aS'08:512025 3 100'
p1207
aS'08:534032 3 99'
p1208
aS'08:534032 2 90'
p1209
aS'08:534032 3 97'
p1210
aS'08:534032 2 90'
p1211
aS'08:534032 3 96'
p1212
aS'08:556615 2 90'
p1213
aS'08:556615 3 95'
p1214
aS'08:556615 0 90'
p1215
aS'08:556615 2 90'
p1216
aS'08:556615 3 94'
p1217
aS'08:579295 3 93'
p1218
aS'08:600085 2 90'
p1219
aS'08:662152 0 90'
p1220
aS'08:682756 3 96'
p1221
aS'08:682756 2 90'
p1222
aS'08:703316 2 90'
p1223
aS'08:724018 3 97'
p1224
aS'08:765322 2 90'
p1225
aS'08:785940 3 99'
p1226
aS'08:785940 0 90'
p1227
aS'08:806962 2 90'
p1228
aS'08:806962 1 90'
p1229
aS'08:806962 2 90'
p1230
aS'08:828659 0 90'
p1231
aS'08:828659 0 90'
p1232
aS'08:828659 3 100'
p1233
aS'08:828659 0 90'
p1234
aS'08:850814 3 102'
p1235
aS'08:871605 3 103'
p1236
aS'08:893133 3 104'
p1237
aS'08:893133 2 90'
p1238
aS'08:893133 1 90'
p1239
aS'08:893133 3 106'
p1240
aS'08:914878 3 107'
p1241
aS'08:914878 0 90'
p1242
aS'08:914878 1 90'
p1243
aS'08:914878 0 90'
p1244
aS'08:914878 1 90'
p1245
aS'08:914878 3 109'
p1246
aS'08:937878 0 90'
p1247
aS'08:937878 1 90'
p1248
aS'08:937878 0 90'
p1249
aS'08:937878 1 90'
p1250
aS'08:937878 3 109'
p1251
aS'08:937878 0 89'
p1252
aS'08:937878 1 92'
p1253
aS'08:961315 0 87'
p1254
aS'08:961315 1 93'
p1255
aS'08:961315 1 95'
p1256
aS'08:961315 0 85'
p1257
aS'08:961315 1 96'
p1258
aS'08:983888 0 84'
p1259
aS'09:025280 1 93'
p1260
aS'09:045866 1 92'
p1261
aS'09:045866 1 90'
p1262
aS'09:066907 3 109'
p1263
aS'09:066907 1 90'
p1264
aS'09:066907 3 107'
p1265
aS'09:066907 1 90'
p1266
aS'09:089073 1 90'
p1267
aS'09:109749 3 109'
p1268
aS'09:213127 3 107'
p1269
aS'09:213127 1 90'
p1270
aS'09:233779 0 85'
p1271
aS'09:275030 2 90'
p1272
aS'09:275030 1 90'
p1273
aS'09:295636 0 87'
p1274
aS'09:295636 2 90'
p1275
aS'09:316234 3 106'
p1276
aS'09:336850 2 90'
p1277
aS'09:336850 2 90'
p1278
aS'09:336850 2 90'
p1279
aS'09:357923 2 90'
p1280
aS'09:357923 2 90'
p1281
aS'09:379124 2 90'
p1282
aS'09:379124 3 104'
p1283
aS'09:379124 2 90'
p1284
aS'09:400852 3 103'
p1285
aS'09:504383 2 92'
p1286
aS'09:525099 2 94'
p1287
aS'09:545733 2 95'
p1288
aS'09:566368 2 96'
p1289
aS'09:566368 2 97'
p1290
aS'09:587023 2 99'
p1291
aS'09:587023 2 101'
p1292
aS'09:587023 2 102'
p1293
aS'09:608078 2 104'
p1294
aS'09:608078 2 107'
p1295
aS'09:608078 3 106'
p1296
aS'09:629233 2 111'
p1297
aS'09:629233 2 115'
p1298
aS'09:629233 3 107'
p1299
aS'09:629233 2 116'
p1300
aS'09:629233 3 109'
p1301
aS'09:652002 1 92'
p1302
aS'09:652002 2 118'
p1303
aS'09:652002 3 109'
p1304
aS'09:652002 3 110'
p1305
aS'09:652002 1 90'
p1306
aS'09:652002 2 119'
p1307
aS'09:675293 1 90'
p1308
aS'09:675293 3 112'
p1309
aS'09:675293 1 90'
p1310
aS'09:675293 3 113'
p1311
aS'09:675293 2 116'
p1312
aS'09:718508 3 110'
p1313
aS'09:739102 2 115'
p1314
aS'09:739102 2 113'
p1315
aS'09:884326 2 111'
p1316
aS'09:904940 2 110'
p1317
aS'09:925551 2 109'
p1318
aS'09:925551 2 107'
p1319
aS'09:946233 3 109'
p1320
aS'09:946233 1 90'
p1321
aS'09:946233 2 106'
p1322
aS'09:966797 2 102'
p1323
aS'09:966797 2 101'
p1324
aS'09:966797 2 97'
p1325
aS'09:987470 1 90'
p1326
aS'09:987470 2 95'
p1327
aS'09:987470 0 89'
p1328
aS'09:987470 2 92'
p1329
aS'09:987470 0 90'
p1330
aS'09:987470 2 90'
p1331
aS'10:011024 2 90'
p1332
aS'10:011024 1 90'
p1333
aS'10:011024 2 90'
p1334
aS'10:011024 2 90'
p1335
aS'10:033304 2 90'
p1336
aS'10:033304 2 90'
p1337
aS'10:033304 2 90'
p1338
aS'10:055594 2 90'
p1339
aS'10:055594 2 90'
p1340
aS'10:076848 2 90'
p1341
aS'10:076848 3 112'
p1342
aS'10:076848 0 90'
p1343
aS'10:076848 2 90'
p1344
aS'10:076848 3 113'
p1345
aS'10:099530 1 90'
p1346
aS'10:099530 3 115'
p1347
aS'10:099530 2 90'
p1348
aS'10:099530 3 116'
p1349
aS'10:099530 0 90'
p1350
aS'10:099530 1 90'
p1351
aS'10:099530 2 90'
p1352
aS'10:123663 1 90'
p1353
aS'10:123663 2 90'
p1354
aS'10:123663 3 118'
p1355
aS'10:123663 2 90'
p1356
aS'10:166471 1 90'
p1357
aS'10:187117 3 115'
p1358
aS'10:187117 1 90'
p1359
aS'10:208045 3 113'
p1360
aS'10:208045 1 90'
p1361
aS'10:229240 1 90'
p1362
aS'10:229240 3 112'
p1363
aS'10:250394 3 110'
p1364
aS'10:271375 3 109'
p1365
aS'10:333574 2 90'
p1366
aS'10:374806 1 90'
p1367
aS'10:374806 2 90'
p1368
aS'10:374806 3 109'
p1369
aS'10:395500 2 90'
p1370
aS'10:395500 1 90'
p1371
aS'10:416235 1 90'
p1372
aS'10:416235 2 90'
p1373
aS'10:416235 1 90'
p1374
aS'10:416235 2 86'
p1375
aS'10:416235 1 90'
p1376
aS'10:416235 3 107'
p1377
aS'10:439763 2 85'
p1378
aS'10:460459 3 109'
p1379
aS'10:543442 0 90'
p1380
aS'10:543442 3 110'
p1381
aS'10:646704 0 90'
p1382
aS'10:667337 0 90'
p1383
aS'10:667337 3 112'
p1384
aS'10:667337 1 90'
p1385
aS'10:749798 2 84'
p1386
aS'10:749798 3 109'
p1387
aS'10:770469 2 83'
p1388
aS'10:909967 3 109'
p1389
aS'10:930778 3 107'
p1390
aS'10:951529 3 106'
p1391
aS'10:972423 2 81'
p1392
aS'10:972423 3 104'
p1393
asS'name'
p1394
S'waitwhat'
p1395
ssI5
(dp1396
S'data'
p1397
(lp1398
S'00:016330 3 90'
p1399
aS'00:222518 1 90'
p1400
aS'00:243164 1 88'
p1401
aS'00:263829 1 86'
p1402
aS'00:284445 1 84'
p1403
aS'00:305058 0 90'
p1404
aS'00:305058 1 84'
p1405
aS'00:325670 1 82'
p1406
aS'00:325670 0 90'
p1407
aS'00:366972 3 90'
p1408
aS'00:366972 1 80'
p1409
aS'00:366972 0 90'
p1410
aS'00:408243 2 95'
p1411
aS'00:428988 1 78'
p1412
aS'00:428988 2 96'
p1413
aS'00:428988 1 77'
p1414
aS'00:449596 0 91'
p1415
aS'00:449596 2 97'
p1416
aS'00:449596 3 90'
p1417
aS'00:449596 1 75'
p1418
aS'00:470245 0 92'
p1419
aS'00:470245 2 99'
p1420
aS'00:470245 1 73'
p1421
aS'00:470245 1 71'
p1422
aS'00:492023 0 94'
p1423
aS'00:492023 3 90'
p1424
aS'00:513202 1 71'
p1425
aS'00:513202 2 101'
p1426
aS'00:616894 0 96'
p1427
aS'00:616894 1 69'
p1428
aS'00:658343 1 67'
p1429
aS'00:740839 0 96'
p1430
aS'00:818169 3 90'
p1431
aS'00:818169 1 65'
p1432
aS'00:839678 3 90'
p1433
aS'00:901639 0 98'
p1434
aS'00:922278 3 90'
p1435
aS'00:963537 3 90'
p1436
aS'01:066573 3 90'
p1437
aS'01:087156 3 90'
p1438
aS'01:087156 2 97'
p1439
aS'01:107779 0 99'
p1440
aS'01:128395 2 96'
p1441
aS'01:169521 0 101'
p1442
aS'01:169521 3 90'
p1443
aS'01:190167 1 64'
p1444
aS'01:190167 2 95'
p1445
aS'01:251990 0 103'
p1446
aS'01:293202 0 104'
p1447
aS'01:293202 1 62'
p1448
aS'01:293202 2 94'
p1449
aS'01:313835 3 90'
p1450
aS'01:313835 3 90'
p1451
aS'01:334444 3 90'
p1452
aS'01:355080 1 60'
p1453
aS'01:355080 0 106'
p1454
aS'01:355080 0 108'
p1455
aS'01:355080 3 90'
p1456
aS'01:376697 0 109'
p1457
aS'01:397445 1 58'
p1458
aS'01:438790 3 90'
p1459
aS'01:624396 1 58'
p1460
aS'01:722322 1 56'
p1461
aS'01:763493 1 54'
p1462
aS'01:784080 3 90'
p1463
aS'01:804695 1 52'
p1464
aS'01:804695 3 90'
p1465
aS'01:825286 3 90'
p1466
aS'01:907757 2 92'
p1467
aS'01:907757 3 90'
p1468
aS'01:948995 0 106'
p1469
aS'01:969637 2 90'
p1470
aS'02:010921 3 90'
p1471
aS'02:010921 3 90'
p1472
aS'02:093451 1 56'
p1473
aS'02:134729 1 58'
p1474
aS'02:155336 1 58'
p1475
aS'02:155336 3 90'
p1476
aS'02:196592 1 60'
p1477
aS'02:196592 3 90'
p1478
aS'02:217238 1 62'
p1479
aS'02:237871 3 90'
p1480
aS'02:237871 3 90'
p1481
aS'02:237871 1 64'
p1482
aS'02:237871 3 90'
p1483
aS'02:258469 3 90'
p1484
aS'02:258469 3 90'
p1485
aS'02:258469 3 90'
p1486
aS'02:279116 1 65'
p1487
aS'02:279116 3 90'
p1488
aS'02:300268 0 104'
p1489
aS'02:300268 3 90'
p1490
aS'02:300268 1 67'
p1491
aS'02:300268 3 90'
p1492
aS'02:322421 2 94'
p1493
aS'02:405058 3 90'
p1494
aS'02:466907 3 90'
p1495
aS'02:549367 3 90'
p1496
aS'02:549367 3 90'
p1497
aS'02:569984 3 90'
p1498
aS'02:590595 3 90'
p1499
aS'02:631864 2 90'
p1500
aS'02:771016 3 90'
p1501
aS'02:812348 1 64'
p1502
aS'02:812348 0 103'
p1503
aS'02:832983 1 62'
p1504
aS'02:853552 1 60'
p1505
aS'02:874213 3 90'
p1506
aS'02:894951 3 90'
p1507
aS'02:894951 1 58'
p1508
aS'02:916037 3 90'
p1509
aS'02:957469 1 58'
p1510
aS'02:978093 0 101'
p1511
aS'02:978093 1 56'
p1512
aS'03:040078 3 90'
p1513
aS'03:081269 3 90'
p1514
aS'03:101849 3 90'
p1515
aS'03:101849 3 90'
p1516
aS'03:122376 1 58'
p1517
aS'03:328748 3 90'
p1518
aS'03:406089 1 56'
p1519
aS'03:426664 1 54'
p1520
aS'03:550482 1 52'
p1521
aS'03:653559 1 51'
p1522
aS'03:674181 1 49'
p1523
aS'03:694794 1 47'
p1524
aS'03:694794 1 45'
p1525
aS'03:715418 1 45'
p1526
aS'03:736031 0 104'
p1527
aS'03:736031 1 43'
p1528
aS'03:756665 1 41'
p1529
aS'03:937057 0 106'
p1530
aS'03:937057 0 108'
p1531
aS'03:957722 3 90'
p1532
aS'03:957722 0 109'
p1533
aS'03:957722 3 90'
p1534
aS'03:978365 0 110'
p1535
aS'03:978365 3 90'
p1536
aS'04:040484 3 90'
p1537
aS'04:040484 3 90'
p1538
aS'04:061097 0 108'
p1539
aS'04:061097 3 90'
p1540
aS'04:143729 1 39'
p1541
aS'04:143729 3 90'
p1542
aS'04:164344 1 38'
p1543
aS'04:164344 3 90'
p1544
aS'04:164344 1 36'
p1545
aS'04:164344 3 90'
p1546
aS'04:164344 0 110'
p1547
aS'04:164344 3 90'
p1548
aS'04:186427 3 90'
p1549
aS'04:186427 1 34'
p1550
aS'04:207592 0 111'
p1551
aS'04:207592 3 90'
p1552
aS'04:249368 3 90'
p1553
aS'04:269930 3 90'
p1554
aS'04:269930 1 38'
p1555
aS'04:291024 3 90'
p1556
aS'04:291024 1 39'
p1557
aS'04:291024 3 90'
p1558
aS'04:374483 2 94'
p1559
aS'04:436469 0 109'
p1560
aS'04:436469 0 108'
p1561
aS'04:436469 0 106'
p1562
aS'04:457082 0 103'
p1563
aS'04:457082 0 99'
p1564
aS'04:477732 0 96'
p1565
aS'04:477732 1 43'
p1566
aS'04:477732 0 94'
p1567
aS'04:477732 1 45'
p1568
aS'04:477732 3 90'
p1569
aS'04:477732 0 92'
p1570
aS'04:477732 1 45'
p1571
aS'04:499880 1 51'
p1572
aS'04:499880 2 95'
p1573
aS'04:499880 0 91'
p1574
aS'04:499880 1 54'
p1575
aS'04:499880 0 90'
p1576
aS'04:499880 1 58'
p1577
aS'04:523013 0 90'
p1578
aS'04:523013 1 58'
p1579
aS'04:523013 1 62'
p1580
aS'04:523013 3 90'
p1581
aS'04:523013 0 90'
p1582
aS'04:523013 1 64'
p1583
aS'04:546128 0 90'
p1584
aS'04:546128 1 65'
p1585
aS'04:546128 3 90'
p1586
aS'04:546128 1 67'
p1587
aS'04:568160 0 90'
p1588
aS'04:790072 0 90'
p1589
aS'04:893516 1 69'
p1590
aS'04:976092 1 65'
p1591
aS'04:976092 1 64'
p1592
aS'05:197812 0 90'
p1593
aS'05:337061 3 90'
p1594
aS'05:337061 3 90'
p1595
aS'05:337061 3 90'
p1596
aS'05:358488 3 90'
p1597
aS'05:379174 3 90'
p1598
aS'05:399909 3 90'
p1599
aS'05:420725 3 90'
p1600
aS'05:420725 2 96'
p1601
aS'05:442314 0 90'
p1602
aS'05:442314 3 90'
p1603
aS'05:442314 2 97'
p1604
aS'05:546587 1 67'
p1605
aS'05:567194 1 69'
p1606
aS'05:567194 1 71'
p1607
aS'05:587812 1 71'
p1608
aS'05:587812 1 77'
p1609
aS'05:587812 1 82'
p1610
aS'05:608430 1 84'
p1611
aS'05:608430 1 86'
p1612
aS'05:608430 2 99'
p1613
aS'05:629998 1 90'
p1614
aS'05:629998 0 90'
p1615
aS'05:629998 1 90'
p1616
aS'05:629998 0 90'
p1617
aS'05:652060 1 90'
p1618
aS'05:652060 3 91'
p1619
aS'05:673584 1 90'
p1620
aS'05:673584 3 93'
p1621
aS'05:673584 1 90'
p1622
aS'05:673584 1 90'
p1623
aS'05:673584 3 95'
p1624
aS'05:696098 3 96'
p1625
aS'05:696098 1 88'
p1626
aS'05:717382 3 97'
p1627
aS'05:738032 1 86'
p1628
aS'05:738032 2 101'
p1629
aS'05:738032 3 99'
p1630
aS'05:780148 3 100'
p1631
aS'05:842028 3 97'
p1632
aS'05:883458 1 84'
p1633
aS'05:883458 3 96'
p1634
aS'05:904070 3 95'
p1635
aS'05:924682 3 94'
p1636
aS'05:986485 1 84'
p1637
aS'05:986485 3 96'
p1638
aS'06:007117 3 97'
p1639
aS'06:027691 3 99'
p1640
aS'06:027691 3 100'
p1641
aS'06:068922 3 102'
p1642
aS'06:068922 3 103'
p1643
aS'06:068922 1 82'
p1644
aS'06:068922 3 104'
p1645
aS'06:090280 3 106'
p1646
aS'06:090280 3 107'
p1647
aS'06:090280 3 109'
p1648
aS'06:111857 1 80'
p1649
aS'06:111857 3 109'
p1650
aS'06:133139 1 78'
p1651
aS'06:133139 0 90'
p1652
aS'06:133139 1 77'
p1653
aS'06:175384 3 107'
p1654
aS'06:175384 3 106'
p1655
aS'06:196098 3 104'
p1656
aS'06:196098 3 103'
p1657
aS'06:217247 3 102'
p1658
aS'06:258556 3 100'
p1659
aS'06:299846 3 99'
p1660
aS'06:382304 3 97'
p1661
aS'06:382304 2 97'
p1662
aS'06:402971 1 78'
p1663
aS'06:402971 2 96'
p1664
aS'06:402971 2 95'
p1665
aS'06:423604 2 94'
p1666
aS'06:423604 3 100'
p1667
aS'06:444225 2 92'
p1668
aS'06:444225 1 80'
p1669
aS'06:444225 2 90'
p1670
aS'06:444225 3 102'
p1671
aS'06:444225 0 90'
p1672
aS'06:467018 2 90'
p1673
aS'06:467018 3 103'
p1674
aS'06:467018 2 90'
p1675
aS'06:488808 1 77'
p1676
aS'06:488808 2 90'
p1677
aS'06:488808 2 90'
p1678
aS'06:695990 3 100'
p1679
aS'06:695990 2 90'
p1680
aS'06:716623 0 90'
p1681
aS'06:778449 3 99'
p1682
aS'06:799081 1 80'
p1683
aS'06:819643 3 97'
p1684
aS'06:840273 2 90'
p1685
aS'06:860914 3 96'
p1686
aS'06:860914 1 82'
p1687
aS'06:917670 3 95'
p1688
aS'07:041743 2 90'
p1689
aS'07:103790 3 97'
p1690
aS'07:103790 3 99'
p1691
aS'07:284350 3 96'
p1692
aS'07:284350 2 90'
p1693
aS'07:304968 2 90'
p1694
aS'07:304968 2 90'
p1695
aS'07:304968 3 99'
p1696
aS'07:325562 1 78'
p1697
aS'07:325562 2 90'
p1698
aS'07:325562 2 90'
p1699
aS'07:325562 3 100'
p1700
aS'07:325562 2 90'
p1701
aS'07:348279 1 77'
p1702
aS'07:348279 0 90'
p1703
aS'07:348279 2 90'
p1704
aS'07:348279 3 102'
p1705
aS'07:370327 2 90'
p1706
aS'07:556167 2 88'
p1707
aS'07:576808 2 86'
p1708
aS'07:576808 3 103'
p1709
aS'07:674959 2 85'
p1710
aS'07:674959 3 100'
p1711
aS'07:674959 2 84'
p1712
aS'07:696431 2 83'
p1713
aS'07:696431 2 81'
p1714
aS'07:717366 2 79'
p1715
aS'07:717366 3 103'
p1716
aS'07:717366 2 78'
p1717
aS'07:738989 0 91'
p1718
aS'07:738989 1 80'
p1719
aS'07:738989 2 76'
p1720
aS'07:738989 2 75'
p1721
aS'07:761117 2 73'
p1722
aS'07:761117 2 71'
p1723
aS'07:761117 3 100'
p1724
aS'07:782759 2 71'
p1725
aS'07:782759 1 82'
p1726
aS'07:804021 1 84'
p1727
aS'07:804021 1 84'
p1728
aS'07:825371 1 86'
p1729
aS'07:825371 1 88'
p1730
aS'07:825371 3 103'
p1731
aS'07:867301 1 90'
p1732
aS'07:908553 1 90'
p1733
aS'07:970425 3 104'
p1734
aS'07:991027 1 90'
p1735
aS'08:011790 0 90'
p1736
aS'08:011790 1 90'
p1737
aS'08:032437 0 90'
p1738
aS'08:073672 3 106'
p1739
aS'08:114933 2 73'
p1740
aS'08:114933 0 90'
p1741
aS'08:135584 1 90'
p1742
aS'08:135584 3 107'
p1743
aS'08:135584 0 90'
p1744
aS'08:135584 1 90'
p1745
aS'08:135584 2 75'
p1746
aS'08:156849 1 90'
p1747
aS'08:156849 2 78'
p1748
aS'08:156849 0 90'
p1749
aS'08:156849 1 90'
p1750
aS'08:156849 1 90'
p1751
aS'08:156849 2 79'
p1752
aS'08:179921 2 81'
p1753
aS'08:179921 2 83'
p1754
aS'08:201157 0 90'
p1755
aS'08:221777 3 104'
p1756
aS'08:283833 1 90'
p1757
aS'08:325038 1 90'
p1758
aS'08:345698 3 107'
p1759
aS'08:345698 0 90'
p1760
aS'08:386951 1 90'
p1761
aS'08:386951 1 90'
p1762
aS'08:407569 3 104'
p1763
aS'08:448818 1 90'
p1764
aS'08:469434 3 103'
p1765
aS'08:469434 2 84'
p1766
aS'08:469434 2 85'
p1767
aS'08:490422 3 102'
p1768
aS'08:490422 2 86'
p1769
aS'08:490422 0 90'
p1770
aS'08:512025 2 88'
p1771
aS'08:512025 2 90'
p1772
aS'08:512025 3 100'
p1773
aS'08:534032 3 99'
p1774
aS'08:534032 2 90'
p1775
aS'08:534032 3 97'
p1776
aS'08:534032 2 90'
p1777
aS'08:534032 3 96'
p1778
aS'08:556615 2 90'
p1779
aS'08:556615 3 95'
p1780
aS'08:556615 0 90'
p1781
aS'08:556615 2 90'
p1782
aS'08:556615 3 94'
p1783
aS'08:579295 3 93'
p1784
aS'08:600085 2 90'
p1785
aS'08:662152 0 90'
p1786
aS'08:682756 3 96'
p1787
aS'08:682756 2 90'
p1788
aS'08:703316 2 90'
p1789
aS'08:724018 3 97'
p1790
aS'08:765322 2 90'
p1791
aS'08:785940 3 99'
p1792
aS'08:785940 0 90'
p1793
aS'08:806962 2 90'
p1794
aS'08:806962 1 90'
p1795
aS'08:806962 2 90'
p1796
aS'08:828659 0 90'
p1797
aS'08:828659 0 90'
p1798
aS'08:828659 3 100'
p1799
aS'08:828659 0 90'
p1800
aS'08:850814 3 102'
p1801
aS'08:871605 3 103'
p1802
aS'08:893133 3 104'
p1803
aS'08:893133 2 90'
p1804
aS'08:893133 1 90'
p1805
aS'08:893133 3 106'
p1806
aS'08:914878 3 107'
p1807
aS'08:914878 0 90'
p1808
aS'08:914878 1 90'
p1809
aS'08:914878 0 90'
p1810
aS'08:914878 1 90'
p1811
aS'08:914878 3 109'
p1812
aS'08:937878 0 90'
p1813
aS'08:937878 1 90'
p1814
aS'08:937878 0 90'
p1815
aS'08:937878 1 90'
p1816
aS'08:937878 3 109'
p1817
aS'08:937878 0 89'
p1818
aS'08:937878 1 92'
p1819
aS'08:961315 0 87'
p1820
aS'08:961315 1 93'
p1821
aS'08:961315 1 95'
p1822
aS'08:961315 0 85'
p1823
aS'08:961315 1 96'
p1824
aS'08:983888 0 84'
p1825
aS'09:025280 1 93'
p1826
aS'09:045866 1 92'
p1827
aS'09:045866 1 90'
p1828
aS'09:066907 3 109'
p1829
aS'09:066907 1 90'
p1830
aS'09:066907 3 107'
p1831
aS'09:066907 1 90'
p1832
aS'09:089073 1 90'
p1833
aS'09:109749 3 109'
p1834
aS'09:213127 3 107'
p1835
aS'09:213127 1 90'
p1836
aS'09:233779 0 85'
p1837
aS'09:275030 2 90'
p1838
aS'09:275030 1 90'
p1839
aS'09:295636 0 87'
p1840
aS'09:295636 2 90'
p1841
aS'09:316234 3 106'
p1842
aS'09:336850 2 90'
p1843
aS'09:336850 2 90'
p1844
aS'09:336850 2 90'
p1845
aS'09:357923 2 90'
p1846
aS'09:357923 2 90'
p1847
aS'09:379124 2 90'
p1848
aS'09:379124 3 104'
p1849
aS'09:379124 2 90'
p1850
aS'09:400852 3 103'
p1851
aS'09:504383 2 92'
p1852
aS'09:525099 2 94'
p1853
aS'09:545733 2 95'
p1854
aS'09:566368 2 96'
p1855
aS'09:566368 2 97'
p1856
aS'09:587023 2 99'
p1857
aS'09:587023 2 101'
p1858
aS'09:587023 2 102'
p1859
aS'09:608078 2 104'
p1860
aS'09:608078 2 107'
p1861
aS'09:608078 3 106'
p1862
aS'09:629233 2 111'
p1863
aS'09:629233 2 115'
p1864
aS'09:629233 3 107'
p1865
aS'09:629233 2 116'
p1866
aS'09:629233 3 109'
p1867
aS'09:652002 1 92'
p1868
aS'09:652002 2 118'
p1869
aS'09:652002 3 109'
p1870
aS'09:652002 3 110'
p1871
aS'09:652002 1 90'
p1872
aS'09:652002 2 119'
p1873
aS'09:675293 1 90'
p1874
aS'09:675293 3 112'
p1875
aS'09:675293 1 90'
p1876
aS'09:675293 3 113'
p1877
aS'09:675293 2 116'
p1878
aS'09:718508 3 110'
p1879
aS'09:739102 2 115'
p1880
aS'09:739102 2 113'
p1881
aS'09:884326 2 111'
p1882
aS'09:904940 2 110'
p1883
aS'09:925551 2 109'
p1884
aS'09:925551 2 107'
p1885
aS'09:946233 3 109'
p1886
aS'09:946233 1 90'
p1887
aS'09:946233 2 106'
p1888
aS'09:966797 2 102'
p1889
aS'09:966797 2 101'
p1890
aS'09:966797 2 97'
p1891
aS'09:987470 1 90'
p1892
aS'09:987470 2 95'
p1893
aS'09:987470 0 89'
p1894
aS'09:987470 2 92'
p1895
aS'09:987470 0 90'
p1896
aS'09:987470 2 90'
p1897
aS'10:011024 2 90'
p1898
aS'10:011024 1 90'
p1899
aS'10:011024 2 90'
p1900
aS'10:011024 2 90'
p1901
aS'10:033304 2 90'
p1902
aS'10:033304 2 90'
p1903
aS'10:033304 2 90'
p1904
aS'10:055594 2 90'
p1905
aS'10:055594 2 90'
p1906
aS'10:076848 2 90'
p1907
aS'10:076848 3 112'
p1908
aS'10:076848 0 90'
p1909
aS'10:076848 2 90'
p1910
aS'10:076848 3 113'
p1911
aS'10:099530 1 90'
p1912
aS'10:099530 3 115'
p1913
aS'10:099530 2 90'
p1914
aS'10:099530 3 116'
p1915
aS'10:099530 0 90'
p1916
aS'10:099530 1 90'
p1917
aS'10:099530 2 90'
p1918
aS'10:123663 1 90'
p1919
aS'10:123663 2 90'
p1920
aS'10:123663 3 118'
p1921
aS'10:123663 2 90'
p1922
aS'10:166471 1 90'
p1923
aS'10:187117 3 115'
p1924
aS'10:187117 1 90'
p1925
aS'10:208045 3 113'
p1926
aS'10:208045 1 90'
p1927
aS'10:229240 1 90'
p1928
aS'10:229240 3 112'
p1929
aS'10:250394 3 110'
p1930
aS'10:271375 3 109'
p1931
aS'10:333574 2 90'
p1932
aS'10:374806 1 90'
p1933
aS'10:374806 2 90'
p1934
aS'10:374806 3 109'
p1935
aS'10:395500 2 90'
p1936
aS'10:395500 1 90'
p1937
aS'10:416235 1 90'
p1938
aS'10:416235 2 90'
p1939
aS'10:416235 1 90'
p1940
aS'10:416235 2 86'
p1941
aS'10:416235 1 90'
p1942
aS'10:416235 3 107'
p1943
aS'10:439763 2 85'
p1944
aS'10:460459 3 109'
p1945
aS'10:543442 0 90'
p1946
aS'10:543442 3 110'
p1947
aS'10:646704 0 90'
p1948
aS'10:667337 0 90'
p1949
aS'10:667337 3 112'
p1950
aS'10:667337 1 90'
p1951
aS'10:749798 2 84'
p1952
aS'10:749798 3 109'
p1953
aS'10:770469 2 83'
p1954
aS'10:909967 3 109'
p1955
aS'10:930778 3 107'
p1956
aS'10:951529 3 106'
p1957
aS'10:972423 2 81'
p1958
aS'10:972423 3 104'
p1959
asS'name'
p1960
S'around'
p1961
ssI6
(dp1962
S'data'
p1963
(lp1964
S'00.000000 2 90'
p1965
aS'00:260117 3 90'
p1966
aS'00:322018 1 90'
p1967
aS'00:383895 0 90'
p1968
aS'00:425078 0 90'
p1969
aS'00:445707 0 90'
p1970
aS'00:445707 0 90'
p1971
aS'00:445707 1 90'
p1972
aS'00:445707 2 90'
p1973
aS'00:466311 0 90'
p1974
aS'00:466311 0 90'
p1975
aS'00:466311 2 90'
p1976
aS'00:486970 0 90'
p1977
aS'00:486970 0 90'
p1978
aS'00:486970 2 90'
p1979
aS'00:508678 2 90'
p1980
aS'00:508678 0 90'
p1981
aS'00:508678 2 90'
p1982
aS'00:530214 2 90'
p1983
aS'00:550943 2 90'
p1984
aS'00:571748 2 92'
p1985
aS'00:571748 1 90'
p1986
aS'00:571748 2 94'
p1987
aS'00:593470 1 90'
p1988
aS'00:593470 2 95'
p1989
aS'00:614623 2 96'
p1990
aS'00:614623 1 90'
p1991
aS'00:635518 2 97'
p1992
aS'00:635518 3 90'
p1993
aS'00:635518 2 99'
p1994
aS'00:657546 0 91'
p1995
aS'00:657546 3 90'
p1996
aS'00:699144 2 101'
p1997
aS'00:740439 1 90'
p1998
aS'00:761051 1 90'
p1999
aS'00:822962 3 90'
p2000
aS'00:843630 2 102'
p2001
aS'00:843630 3 90'
p2002
aS'00:843630 1 90'
p2003
aS'00:843630 1 90'
p2004
aS'00:843630 3 90'
p2005
aS'00:864641 0 92'
p2006
aS'00:864641 1 88'
p2007
aS'00:864641 3 90'
p2008
aS'00:864641 3 90'
p2009
aS'00:864641 0 94'
p2010
aS'00:864641 1 86'
p2011
aS'00:908255 1 84'
p2012
aS'00:908255 3 90'
p2013
aS'00:929021 0 96'
p2014
aS'00:929021 3 90'
p2015
aS'00:950179 1 84'
p2016
aS'00:970867 1 82'
p2017
aS'00:991674 3 91'
p2018
aS'01:012343 1 80'
p2019
aS'01:012343 0 96'
p2020
aS'01:033488 1 78'
p2021
aS'01:033488 1 77'
p2022
aS'01:054568 0 98'
p2023
aS'01:054568 0 99'
p2024
aS'01:075883 1 75'
p2025
aS'01:075883 1 73'
p2026
aS'01:179554 0 101'
p2027
aS'01:179554 3 93'
p2028
aS'01:200228 1 71'
p2029
aS'01:282720 2 104'
p2030
aS'01:303355 3 94'
p2031
aS'01:385824 2 106'
p2032
aS'01:406439 2 107'
p2033
aS'01:427038 3 95'
p2034
aS'01:447624 1 75'
p2035
aS'01:468243 3 96'
p2036
aS'01:488869 3 97'
p2037
aS'01:550663 2 109'
p2038
aS'01:571277 1 77'
p2039
aS'01:571277 3 99'
p2040
aS'01:571277 2 110'
p2041
aS'01:591915 2 111'
p2042
aS'01:591915 2 113'
p2043
aS'01:612537 2 115'
p2044
aS'01:633142 2 116'
p2045
aS'01:653774 1 78'
p2046
aS'01:653774 2 118'
p2047
aS'01:674397 2 119'
p2048
aS'01:674397 1 80'
p2049
aS'01:695056 2 121'
p2050
aS'01:715691 2 122'
p2051
aS'01:715691 2 123'
p2052
aS'01:736290 2 125'
p2053
aS'01:736290 3 100'
p2054
aS'01:756910 2 127'
p2055
aS'01:798168 1 82'
p2056
aS'01:798168 2 128'
p2057
aS'01:818762 3 102'
p2058
aS'01:839484 1 84'
p2059
aS'01:922155 2 130'
p2060
aS'02:025345 2 127'
p2061
aS'02:123216 3 103'
p2062
aS'02:144250 3 104'
p2063
aS'02:165143 3 106'
p2064
aS'02:185840 3 107'
p2065
aS'02:206565 3 109'
p2066
aS'02:247863 3 109'
p2067
aS'02:289073 3 110'
p2068
aS'02:330279 3 112'
p2069
aS'02:495349 2 125'
p2070
aS'02:515955 3 113'
p2071
aS'02:536618 3 115'
p2072
aS'02:536618 2 123'
p2073
aS'02:557259 3 116'
p2074
aS'02:598565 3 118'
p2075
aS'02:675968 2 122'
p2076
aS'02:675968 3 119'
p2077
aS'03:119614 3 116'
p2078
aS'03:119614 2 125'
p2079
aS'03:161600 3 115'
p2080
aS'03:223410 3 113'
p2081
aS'03:326485 3 112'
p2082
aS'03:367772 3 110'
p2083
aS'03:388405 3 109'
p2084
aS'03:429710 3 109'
p2085
aS'03:450305 3 107'
p2086
aS'03:470959 3 106'
p2087
aS'03:470959 3 104'
p2088
aS'03:532894 3 103'
p2089
aS'03:651574 3 102'
p2090
aS'03:672266 1 84'
p2091
aS'03:713497 3 100'
p2092
aS'03:734128 3 99'
p2093
aS'03:754712 3 97'
p2094
aS'03:775306 1 86'
p2095
aS'03:837240 3 96'
p2096
aS'04:120904 2 122'
p2097
aS'04:141573 2 121'
p2098
aS'04:162234 2 119'
p2099
aS'04:182840 3 99'
p2100
aS'04:182840 2 118'
p2101
aS'04:182840 2 116'
p2102
aS'04:224089 3 100'
p2103
aS'04:244699 2 115'
p2104
aS'04:368456 3 102'
p2105
aS'04:368456 1 84'
p2106
aS'04:368456 3 103'
p2107
aS'04:389103 1 82'
p2108
aS'04:430298 3 104'
p2109
aS'04:450914 1 80'
p2110
aS'04:492195 3 106'
p2111
aS'04:512829 1 78'
p2112
aS'04:574685 3 107'
p2113
aS'04:672700 3 109'
p2114
aS'04:713958 3 109'
p2115
aS'04:755212 3 110'
p2116
aS'04:977093 3 112'
p2117
aS'05:018306 3 113'
p2118
aS'05:018306 3 115'
p2119
aS'05:100798 1 82'
p2120
aS'05:100798 1 84'
p2121
aS'05:183304 3 116'
p2122
aS'05:224584 3 118'
p2123
aS'05:466967 3 119'
p2124
aS'05:487563 3 120'
p2125
aS'05:528822 2 118'
p2126
aS'05:528822 3 122'
p2127
aS'05:606157 1 84'
p2128
aS'05:647801 1 86'
p2129
aS'05:689091 1 88'
p2130
aS'05:792208 1 90'
p2131
aS'05:812868 0 103'
p2132
aS'05:812868 1 90'
p2133
aS'05:812868 0 104'
p2134
aS'05:833533 3 122'
p2135
aS'05:854112 0 106'
p2136
aS'06:019302 1 90'
p2137
aS'06:039939 1 90'
p2138
aS'06:039939 1 90'
p2139
aS'06:060556 1 90'
p2140
aS'06:137914 3 124'
p2141
aS'06:137914 3 125'
p2142
aS'06:200810 2 119'
p2143
aS'06:221398 3 127'
p2144
aS'06:324582 3 128'
p2145
aS'06:443368 1 90'
p2146
aS'06:443368 3 129'
p2147
aS'06:465208 2 121'
p2148
aS'06:465208 3 131'
p2149
aS'06:507096 3 132'
p2150
aS'06:507096 3 134'
p2151
aS'06:610282 1 90'
p2152
aS'06:610282 1 90'
p2153
aS'06:630914 1 90'
p2154
aS'06:672124 2 118'
p2155
aS'06:795938 2 116'
p2156
aS'06:795938 3 135'
p2157
aS'06:816584 3 136'
p2158
aS'06:816584 3 137'
p2159
aS'06:837230 2 115'
p2160
aS'06:879031 2 113'
p2161
aS'06:997791 2 111'
p2162
aS'07:018417 3 135'
p2163
aS'07:018417 3 134'
p2164
aS'07:039090 3 132'
p2165
aS'07:059688 3 131'
p2166
aS'07:080359 3 129'
p2167
aS'07:080359 3 128'
p2168
aS'07:101636 3 127'
p2169
aS'07:122334 3 125'
p2170
aS'07:143125 3 124'
p2171
aS'07:163824 3 122'
p2172
aS'07:184566 3 122'
p2173
aS'07:226033 3 120'
p2174
aS'07:267300 3 119'
p2175
aS'07:287860 3 118'
p2176
aS'07:308427 3 116'
p2177
aS'07:329039 3 115'
p2178
aS'07:370285 3 113'
p2179
aS'07:411483 1 90'
p2180
aS'07:432109 0 103'
p2181
aS'07:452657 1 90'
p2182
aS'07:452657 0 101'
p2183
aS'07:452657 3 112'
p2184
aS'07:452657 1 90'
p2185
aS'07:474415 0 99'
p2186
aS'07:474415 1 90'
p2187
aS'07:474415 2 115'
p2188
aS'07:474415 0 98'
p2189
aS'07:474415 1 90'
p2190
aS'07:474415 3 110'
p2191
aS'07:497533 0 96'
p2192
aS'07:497533 1 90'
p2193
aS'07:497533 1 90'
p2194
aS'07:519082 1 90'
p2195
aS'07:539744 0 96'
p2196
aS'07:601829 1 88'
p2197
aS'07:704890 3 109'
p2198
aS'07:725512 2 116'
p2199
aS'07:746100 3 109'
p2200
aS'07:766839 2 118'
p2201
aS'07:766839 3 107'
p2202
aS'07:787470 3 106'
p2203
aS'07:787470 1 86'
p2204
aS'07:787470 3 104'
p2205
aS'07:808095 2 119'
p2206
aS'07:808095 0 94'
p2207
aS'07:828748 3 103'
p2208
aS'07:849423 1 84'
p2209
aS'07:870236 3 102'
p2210
aS'07:890828 1 84'
p2211
aS'08:076543 3 100'
p2212
aS'08:117815 3 99'
p2213
aS'08:236486 1 82'
p2214
aS'08:417035 3 97'
p2215
aS'08:438153 1 80'
p2216
aS'08:459006 1 78'
p2217
aS'08:459006 0 92'
p2218
aS'08:604193 1 82'
p2219
aS'08:624808 0 96'
p2220
aS'08:707365 2 121'
p2221
aS'08:908473 3 96'
p2222
aS'08:970391 0 92'
p2223
aS'09:512061 3 95'
p2224
aS'09:533170 3 94'
p2225
aS'09:574470 3 93'
p2226
asS'name'
p2227
S'rightside'
p2228
ssI7
(dp2229
S'data'
p2230
(lp2231
S'00:321028 0 90'
p2232
aS'00:341657 2 90'
p2233
aS'00:341657 1 90'
p2234
aS'00:362280 0 90'
p2235
aS'00:362280 0 90'
p2236
aS'00:362280 0 90'
p2237
aS'00:362280 1 90'
p2238
aS'00:382840 0 90'
p2239
aS'00:382840 0 90'
p2240
aS'00:382840 2 90'
p2241
aS'00:404533 0 89'
p2242
aS'00:404533 2 90'
p2243
aS'00:404533 0 87'
p2244
aS'00:404533 1 90'
p2245
aS'00:404533 2 90'
p2246
aS'00:404533 0 85'
p2247
aS'00:427494 1 90'
p2248
aS'00:427494 2 90'
p2249
aS'00:427494 0 84'
p2250
aS'00:449374 1 90'
p2251
aS'00:449374 3 90'
p2252
aS'00:449374 1 90'
p2253
aS'00:449374 3 90'
p2254
aS'00:471551 2 90'
p2255
aS'00:471551 2 90'
p2256
aS'00:471551 3 90'
p2257
aS'00:471551 2 88'
p2258
aS'00:471551 3 90'
p2259
aS'00:494248 3 90'
p2260
aS'00:556359 3 90'
p2261
aS'00:556359 2 86'
p2262
aS'00:576986 3 90'
p2263
aS'00:576986 1 90'
p2264
aS'00:576986 2 85'
p2265
aS'00:598406 2 84'
p2266
aS'00:598406 2 83'
p2267
aS'00:619612 2 81'
p2268
aS'00:619612 2 79'
p2269
aS'00:619612 2 78'
p2270
aS'00:641226 2 76'
p2271
aS'00:641226 2 75'
p2272
aS'00:641226 2 71'
p2273
aS'00:641226 3 90'
p2274
aS'00:663374 2 69'
p2275
aS'00:663374 2 68'
p2276
aS'00:684503 0 83'
p2277
aS'00:684503 2 66'
p2278
aS'00:684503 0 81'
p2279
aS'00:706188 0 79'
p2280
aS'00:706188 0 77'
p2281
aS'00:727192 0 75'
p2282
aS'00:727192 0 74'
p2283
aS'00:748517 0 72'
p2284
aS'00:789774 0 71'
p2285
aS'00:831027 3 91'
p2286
aS'00:851624 0 69'
p2287
aS'00:872248 1 90'
p2288
aS'00:872248 2 69'
p2289
aS'00:872248 2 71'
p2290
aS'00:893424 2 71'
p2291
aS'00:893424 0 67'
p2292
aS'00:914814 2 73'
p2293
aS'00:914814 0 65'
p2294
aS'00:914814 2 75'
p2295
aS'00:914814 1 90'
p2296
aS'00:914814 2 76'
p2297
aS'00:914814 3 93'
p2298
aS'00:937925 0 64'
p2299
aS'00:937925 2 78'
p2300
aS'00:937925 0 62'
p2301
aS'00:980225 0 60'
p2302
aS'01:000842 0 58'
p2303
aS'01:042087 0 57'
p2304
aS'01:062689 3 90'
p2305
aS'01:062689 2 79'
p2306
aS'01:083341 1 90'
p2307
aS'01:083341 2 81'
p2308
aS'01:083341 3 90'
p2309
aS'01:083341 1 90'
p2310
aS'01:083341 3 90'
p2311
aS'01:083341 2 83'
p2312
aS'01:106395 3 90'
p2313
aS'01:106395 1 90'
p2314
aS'01:127386 3 90'
p2315
aS'01:127386 0 60'
p2316
aS'01:127386 2 84'
p2317
aS'01:169731 1 90'
p2318
aS'01:169731 1 90'
p2319
aS'01:169731 3 90'
p2320
aS'01:191023 0 62'
p2321
aS'01:232400 1 90'
p2322
aS'01:252978 1 90'
p2323
aS'01:252978 0 64'
p2324
aS'01:273952 3 90'
p2325
aS'01:294685 2 81'
p2326
aS'01:315642 2 79'
p2327
aS'01:315642 3 90'
p2328
aS'01:315642 0 65'
p2329
aS'01:315642 2 78'
p2330
aS'01:315642 2 75'
p2331
aS'01:338007 0 67'
p2332
aS'01:338007 2 73'
p2333
aS'01:338007 3 90'
p2334
aS'01:338007 0 69'
p2335
aS'01:338007 1 90'
p2336
aS'01:338007 2 71'
p2337
aS'01:338007 3 91'
p2338
aS'01:338007 2 71'
p2339
aS'01:362457 1 90'
p2340
aS'01:362457 2 69'
p2341
aS'01:362457 1 92'
p2342
aS'01:362457 1 93'
p2343
aS'01:384521 0 71'
p2344
aS'01:384521 1 96'
p2345
aS'01:384521 2 68'
p2346
aS'01:384521 0 72'
p2347
aS'01:384521 1 98'
p2348
aS'01:384521 0 74'
p2349
aS'01:384521 1 100'
p2350
aS'01:384521 2 66'
p2351
aS'01:408777 1 101'
p2352
aS'01:408777 0 75'
p2353
aS'01:408777 1 103'
p2354
aS'01:408777 2 64'
p2355
aS'01:408777 1 104'
p2356
aS'01:408777 3 93'
p2357
aS'01:452548 0 77'
p2358
aS'01:473201 3 94'
p2359
aS'01:493828 3 95'
p2360
aS'01:514555 2 63'
p2361
aS'01:514555 3 96'
p2362
aS'01:514555 2 61'
p2363
aS'01:536199 3 97'
p2364
aS'01:536199 2 60'
p2365
aS'01:536199 1 106'
p2366
aS'01:536199 3 99'
p2367
aS'01:558660 2 58'
p2368
aS'01:579396 3 100'
p2369
aS'01:579396 2 56'
p2370
aS'01:579396 2 54'
p2371
aS'01:601081 3 102'
p2372
aS'01:601081 2 53'
p2373
aS'01:601081 3 103'
p2374
aS'01:601081 2 51'
p2375
aS'01:622978 3 104'
p2376
aS'01:622978 2 50'
p2377
aS'01:622978 3 106'
p2378
aS'01:644830 1 108'
p2379
aS'01:644830 1 109'
p2380
aS'01:666103 1 110'
p2381
aS'01:666103 3 107'
p2382
aS'01:687327 1 111'
p2383
aS'01:687327 1 113'
p2384
aS'01:708394 1 114'
p2385
aS'01:708394 1 116'
p2386
aS'01:729521 0 79'
p2387
aS'01:729521 0 81'
p2388
aS'01:729521 1 117'
p2389
aS'01:792438 0 83'
p2390
aS'01:792438 1 119'
p2391
aS'01:792438 0 84'
p2392
aS'01:813329 0 85'
p2393
aS'01:813329 1 122'
p2394
aS'01:813329 3 109'
p2395
aS'01:813329 0 87'
p2396
aS'01:835474 1 122'
p2397
aS'01:835474 0 89'
p2398
aS'01:856732 0 90'
p2399
aS'01:856732 0 90'
p2400
aS'01:898643 1 120'
p2401
aS'01:919210 0 90'
p2402
aS'01:919210 3 109'
p2403
aS'01:919210 1 119'
p2404
aS'01:940635 3 110'
p2405
aS'01:940635 1 116'
p2406
aS'01:940635 1 111'
p2407
aS'01:940635 2 48'
p2408
aS'01:962899 1 109'
p2409
aS'01:962899 1 106'
p2410
aS'01:962899 3 112'
p2411
aS'01:962899 1 104'
p2412
aS'01:985216 1 103'
p2413
aS'01:985216 2 46'
p2414
aS'01:985216 1 101'
p2415
aS'01:985216 1 100'
p2416
aS'02:007374 1 98'
p2417
aS'02:007374 1 97'
p2418
aS'02:007374 3 113'
p2419
aS'02:029003 1 96'
p2420
aS'02:029003 1 95'
p2421
aS'02:050193 1 92'
p2422
aS'02:050193 1 90'
p2423
aS'02:050193 2 45'
p2424
aS'02:072211 1 90'
p2425
aS'02:092903 1 90'
p2426
aS'02:134312 1 90'
p2427
aS'02:134312 2 44'
p2428
aS'02:155074 1 90'
p2429
aS'02:175828 1 90'
p2430
aS'02:175828 0 90'
p2431
aS'02:175828 1 90'
p2432
aS'02:175828 2 43'
p2433
aS'02:197908 1 90'
p2434
aS'02:197908 0 90'
p2435
aS'02:219398 2 41'
p2436
aS'02:240057 1 90'
p2437
aS'02:281300 1 90'
p2438
aS'02:301933 2 39'
p2439
aS'02:301933 3 115'
p2440
aS'02:322870 3 116'
p2441
aS'02:322870 0 90'
p2442
aS'02:322870 2 38'
p2443
aS'02:365082 2 36'
p2444
aS'02:385730 3 118'
p2445
aS'02:406419 2 35'
p2446
aS'02:427249 2 33'
p2447
aS'02:530529 2 32'
p2448
aS'02:613128 2 31'
p2449
aS'02:613128 2 29'
p2450
aS'02:613128 0 90'
p2451
aS'02:613128 3 119'
p2452
aS'02:633960 2 28'
p2453
aS'02:633960 3 120'
p2454
aS'02:633960 2 26'
p2455
aS'02:633960 3 122'
p2456
aS'02:633960 2 24'
p2457
aS'02:654620 3 122'
p2458
aS'02:654620 2 23'
p2459
aS'02:737755 3 124'
p2460
aS'02:758407 2 26'
p2461
aS'02:758407 2 28'
p2462
aS'02:779006 2 29'
p2463
aS'02:779006 2 31'
p2464
aS'02:779006 2 33'
p2465
aS'02:799772 2 35'
p2466
aS'02:799772 2 36'
p2467
aS'02:799772 3 125'
p2468
aS'02:821348 2 38'
p2469
aS'02:821348 2 39'
p2470
aS'02:842490 2 41'
p2471
aS'02:842490 3 127'
p2472
aS'02:863405 2 43'
p2473
aS'02:863405 2 44'
p2474
aS'02:863405 2 45'
p2475
aS'02:884889 2 46'
p2476
aS'02:884889 2 48'
p2477
aS'02:905972 2 50'
p2478
aS'02:905972 2 51'
p2479
aS'02:905972 2 53'
p2480
aS'02:927767 2 54'
p2481
aS'02:948564 2 56'
p2482
aS'02:969404 2 57'
p2483
aS'02:990193 2 58'
p2484
aS'02:990193 2 60'
p2485
aS'03:011461 2 61'
p2486
aS'03:011461 2 63'
p2487
aS'03:011461 3 124'
p2488
aS'03:033133 2 64'
p2489
aS'03:033133 2 66'
p2490
aS'03:074677 2 68'
p2491
aS'03:074677 0 90'
p2492
aS'03:260420 2 64'
p2493
aS'03:260420 3 127'
p2494
aS'03:260420 2 63'
p2495
aS'03:281080 2 61'
p2496
aS'03:281080 2 60'
p2497
aS'03:301821 2 57'
p2498
aS'03:301821 3 128'
p2499
aS'03:301821 2 54'
p2500
aS'03:301821 2 53'
p2501
aS'03:343076 2 51'
p2502
aS'03:384340 3 125'
p2503
aS'03:404983 2 50'
p2504
aS'03:487524 0 90'
p2505
aS'03:508175 3 124'
p2506
aS'03:528757 2 53'
p2507
aS'03:528757 3 122'
p2508
aS'03:549385 2 56'
p2509
aS'03:549385 2 57'
p2510
aS'03:549385 3 120'
p2511
aS'03:549385 2 63'
p2512
aS'03:549385 3 119'
p2513
aS'03:570009 2 68'
p2514
aS'03:570009 3 116'
p2515
aS'03:570009 2 69'
p2516
aS'03:570009 3 113'
p2517
aS'03:570009 2 71'
p2518
aS'03:570009 3 112'
p2519
aS'03:592356 2 76'
p2520
aS'03:592356 3 110'
p2521
aS'03:592356 2 81'
p2522
aS'03:592356 3 109'
p2523
aS'03:592356 2 84'
p2524
aS'03:592356 3 109'
p2525
aS'03:615571 3 107'
p2526
aS'03:615571 2 85'
p2527
aS'03:657405 3 106'
p2528
aS'03:698749 1 90'
p2529
aS'03:760640 3 109'
p2530
aS'03:843158 3 109'
p2531
aS'03:843158 3 110'
p2532
aS'03:863795 3 112'
p2533
aS'03:863795 2 81'
p2534
aS'03:884440 2 79'
p2535
aS'03:884440 3 113'
p2536
aS'03:884440 2 78'
p2537
aS'03:884440 3 115'
p2538
aS'03:884440 2 76'
p2539
aS'03:884440 3 116'
p2540
aS'03:905092 2 75'
p2541
aS'03:905092 3 118'
p2542
aS'03:905092 2 71'
p2543
aS'03:905092 3 119'
p2544
aS'03:905092 2 69'
p2545
aS'03:927645 2 68'
p2546
aS'03:927645 3 122'
p2547
aS'03:927645 2 66'
p2548
aS'03:927645 2 64'
p2549
aS'03:949651 2 61'
p2550
aS'03:949651 2 60'
p2551
aS'03:970764 2 58'
p2552
aS'03:970764 3 122'
p2553
aS'03:970764 2 57'
p2554
aS'03:992894 2 56'
p2555
aS'03:992894 2 54'
p2556
aS'03:992894 3 124'
p2557
aS'04:035176 2 53'
p2558
aS'04:117568 3 125'
p2559
aS'04:179513 1 90'
p2560
aS'04:179513 3 127'
p2561
aS'04:200150 1 90'
p2562
aS'04:200150 3 128'
p2563
aS'04:220801 1 90'
p2564
aS'04:220801 1 90'
p2565
aS'04:220801 1 90'
p2566
aS'04:241470 3 129'
p2567
aS'04:241470 1 90'
p2568
aS'04:282979 1 90'
p2569
aS'04:282979 3 131'
p2570
aS'04:303601 1 90'
p2571
aS'04:324188 3 128'
p2572
aS'04:324188 3 127'
p2573
aS'04:345325 3 125'
p2574
aS'04:345325 1 90'
p2575
aS'04:345325 2 56'
p2576
aS'04:345325 3 122'
p2577
aS'04:367247 2 58'
p2578
aS'04:367247 3 120'
p2579
aS'04:367247 2 61'
p2580
aS'04:367247 3 118'
p2581
aS'04:367247 2 63'
p2582
aS'04:367247 3 116'
p2583
aS'04:390759 2 64'
p2584
aS'04:390759 3 113'
p2585
aS'04:390759 2 66'
p2586
aS'04:390759 3 112'
p2587
aS'04:413041 3 110'
p2588
aS'04:413041 3 109'
p2589
aS'04:413041 0 90'
p2590
aS'04:434706 1 90'
p2591
aS'04:434706 2 68'
p2592
aS'04:455918 3 109'
p2593
aS'04:455918 2 69'
p2594
aS'04:539120 3 107'
p2595
aS'04:539120 3 106'
p2596
aS'04:559753 3 104'
p2597
aS'04:580416 3 103'
p2598
aS'04:642288 3 102'
p2599
aS'04:642288 3 100'
p2600
aS'04:662913 1 90'
p2601
aS'04:683542 3 99'
p2602
aS'04:704216 3 97'
p2603
aS'04:745416 3 96'
p2604
aS'04:766042 3 95'
p2605
aS'04:869248 1 90'
p2606
aS'04:889855 3 97'
p2607
aS'04:889855 3 99'
p2608
aS'04:910541 3 100'
p2609
aS'04:910541 2 66'
p2610
aS'04:910541 3 102'
p2611
aS'04:931237 1 90'
p2612
aS'04:931237 3 103'
p2613
aS'04:931237 3 104'
p2614
aS'04:931237 3 106'
p2615
aS'04:952203 3 107'
p2616
aS'04:952203 1 90'
p2617
aS'04:952203 0 90'
p2618
aS'04:952203 1 90'
p2619
aS'04:974242 1 90'
p2620
aS'04:974242 3 109'
p2621
aS'04:974242 1 90'
p2622
aS'04:995770 1 90'
p2623
aS'04:995770 3 109'
p2624
aS'05:017382 3 110'
p2625
aS'05:058731 1 90'
p2626
aS'05:058731 1 90'
p2627
aS'05:079428 3 112'
p2628
aS'05:100349 1 90'
p2629
aS'05:100349 1 90'
p2630
aS'05:121250 0 90'
p2631
aS'05:121250 3 113'
p2632
aS'05:121250 3 115'
p2633
aS'05:142775 3 116'
p2634
aS'05:163579 1 90'
p2635
aS'05:225539 1 90'
p2636
aS'05:246166 1 90'
p2637
aS'05:246166 3 118'
p2638
aS'05:308067 1 90'
p2639
aS'05:370121 1 90'
p2640
aS'05:390771 0 90'
p2641
aS'05:452734 0 90'
p2642
aS'05:452734 3 119'
p2643
aS'05:452734 0 90'
p2644
aS'05:473356 0 90'
p2645
aS'05:473356 2 64'
p2646
aS'05:473356 3 120'
p2647
aS'05:494021 3 122'
p2648
aS'05:555945 3 122'
p2649
aS'05:555945 1 90'
p2650
aS'05:576564 1 90'
p2651
aS'05:576564 1 90'
p2652
aS'05:576564 3 124'
p2653
aS'05:576564 1 90'
p2654
aS'05:597169 1 90'
p2655
aS'05:597169 1 90'
p2656
aS'05:618375 0 90'
p2657
aS'05:618375 1 92'
p2658
aS'05:618375 3 125'
p2659
aS'05:618375 1 93'
p2660
aS'05:618375 1 95'
p2661
aS'05:744324 1 96'
p2662
aS'05:744324 1 97'
p2663
aS'05:764955 1 100'
p2664
aS'05:764955 1 101'
p2665
aS'05:764955 1 106'
p2666
aS'05:785566 0 90'
p2667
aS'05:785566 1 108'
p2668
aS'05:785566 1 109'
p2669
aS'05:785566 1 110'
p2670
aS'05:806711 0 90'
p2671
aS'05:806711 1 111'
p2672
aS'05:828201 1 113'
p2673
aS'05:848762 3 122'
p2674
aS'05:869743 1 110'
p2675
aS'05:869743 1 109'
p2676
aS'05:891136 3 122'
p2677
aS'05:891136 3 120'
p2678
aS'05:891136 3 119'
p2679
aS'05:912964 3 118'
p2680
aS'05:912964 2 69'
p2681
aS'05:934099 3 116'
p2682
aS'05:934099 3 115'
p2683
aS'05:955221 3 113'
p2684
aS'05:955221 3 112'
p2685
aS'05:955221 3 110'
p2686
aS'05:976612 3 109'
p2687
aS'05:976612 3 109'
p2688
aS'05:976612 1 108'
p2689
aS'05:976612 3 107'
p2690
aS'05:998714 2 71'
p2691
aS'05:998714 3 106'
p2692
aS'06:019983 3 104'
p2693
aS'06:019983 1 106'
p2694
aS'06:019983 3 103'
p2695
aS'06:041574 1 104'
p2696
aS'06:103860 1 103'
p2697
aS'06:124473 1 101'
p2698
aS'06:145127 1 100'
p2699
aS'06:145127 1 98'
p2700
aS'06:145127 3 106'
p2701
aS'06:166133 1 97'
p2702
aS'06:166133 1 96'
p2703
aS'06:166133 3 107'
p2704
aS'06:187715 1 95'
p2705
aS'06:187715 3 109'
p2706
aS'06:187715 1 93'
p2707
aS'06:187715 3 109'
p2708
aS'06:209881 1 92'
p2709
aS'06:209881 3 110'
p2710
aS'06:209881 1 90'
p2711
aS'06:209881 3 112'
p2712
aS'06:209881 3 113'
p2713
aS'06:232741 1 90'
p2714
aS'06:232741 2 68'
p2715
aS'06:232741 3 115'
p2716
aS'06:232741 3 118'
p2717
aS'06:254656 3 119'
p2718
aS'06:254656 1 90'
p2719
aS'06:254656 2 66'
p2720
aS'06:317626 1 90'
p2721
aS'06:358831 1 90'
p2722
aS'06:400097 1 90'
p2723
aS'06:462042 1 90'
p2724
aS'06:523894 1 90'
p2725
aS'06:544500 3 116'
p2726
aS'06:565105 0 90'
p2727
aS'06:606401 3 115'
p2728
aS'06:627042 3 113'
p2729
aS'06:627042 3 112'
p2730
aS'06:647668 3 110'
p2731
aS'06:647668 0 90'
p2732
aS'06:647668 1 90'
p2733
aS'06:668368 3 109'
p2734
aS'06:688969 3 109'
p2735
aS'06:688969 3 107'
p2736
aS'06:709598 3 106'
p2737
aS'06:730224 3 104'
p2738
aS'06:730224 1 90'
p2739
aS'06:730224 3 103'
p2740
aS'06:750819 1 92'
p2741
aS'06:750819 3 102'
p2742
aS'06:771676 1 93'
p2743
aS'06:792370 1 95'
p2744
aS'06:813165 3 100'
p2745
aS'06:875174 3 103'
p2746
aS'06:875174 1 92'
p2747
aS'06:895739 1 90'
p2748
aS'06:999159 3 104'
p2749
aS'07:040395 3 106'
p2750
aS'07:061005 3 107'
p2751
aS'07:061005 2 64'
p2752
aS'07:061005 3 109'
p2753
aS'07:081577 2 63'
p2754
aS'07:081577 3 109'
p2755
aS'07:081577 3 110'
p2756
aS'07:102249 2 61'
p2757
aS'07:406870 3 107'
p2758
aS'07:427496 3 106'
p2759
aS'07:448067 3 104'
p2760
aS'07:468712 3 103'
p2761
aS'07:468712 3 102'
p2762
aS'07:489361 3 100'
p2763
aS'07:489361 1 90'
p2764
aS'07:489361 3 99'
p2765
asS'name'
p2766
S'leftside'
p2767
ssI8
(dp2768
S'data'
p2769
(lp2770
S'00:198078 0 90'
p2771
aS'00:218792 1 90'
p2772
aS'00:301329 0 90'
p2773
aS'00:425190 3 90'
p2774
aS'00:425190 2 90'
p2775
aS'00:523328 3 90'
p2776
aS'00:605880 3 90'
p2777
aS'00:605880 0 90'
p2778
aS'00:626478 3 90'
p2779
aS'00:647093 3 90'
p2780
aS'00:667741 3 90'
p2781
aS'00:667741 3 90'
p2782
aS'00:688406 3 90'
p2783
aS'00:750333 3 91'
p2784
aS'00:750333 1 90'
p2785
aS'00:771040 1 90'
p2786
aS'00:771040 3 93'
p2787
aS'00:771040 3 94'
p2788
aS'00:792134 3 95'
p2789
aS'00:792134 2 90'
p2790
aS'00:813406 3 96'
p2791
aS'00:813406 3 97'
p2792
aS'00:855236 1 90'
p2793
aS'00:896420 2 90'
p2794
aS'00:896420 3 96'
p2795
aS'00:917060 3 95'
p2796
aS'00:917060 0 90'
p2797
aS'00:938232 1 90'
p2798
aS'00:938232 0 90'
p2799
aS'00:938232 3 97'
p2800
aS'00:980368 2 90'
p2801
aS'00:980368 3 99'
p2802
aS'01:001055 0 90'
p2803
aS'01:001055 1 90'
p2804
aS'01:001055 1 90'
p2805
aS'01:022660 0 90'
p2806
aS'01:022660 0 90'
p2807
aS'01:043697 0 90'
p2808
aS'01:043697 1 90'
p2809
aS'01:064982 0 90'
p2810
aS'01:106278 3 100'
p2811
aS'01:106278 0 90'
p2812
aS'01:127041 1 90'
p2813
aS'01:147759 0 89'
p2814
aS'01:147759 0 87'
p2815
aS'01:147759 2 90'
p2816
aS'01:169632 0 85'
p2817
aS'01:169632 2 90'
p2818
aS'01:169632 1 90'
p2819
aS'01:169632 3 102'
p2820
aS'01:191619 0 84'
p2821
aS'01:191619 2 90'
p2822
aS'01:191619 2 90'
p2823
aS'01:233852 0 83'
p2824
aS'01:233852 2 90'
p2825
aS'01:233852 0 81'
p2826
aS'01:255133 0 79'
p2827
aS'01:255133 0 77'
p2828
aS'01:255133 2 90'
p2829
aS'01:276706 0 75'
p2830
aS'01:276706 0 74'
p2831
aS'01:276706 2 90'
p2832
aS'01:276706 0 72'
p2833
aS'01:298593 0 71'
p2834
aS'01:298593 1 92'
p2835
aS'01:298593 3 103'
p2836
aS'01:298593 0 69'
p2837
aS'01:320546 3 104'
p2838
aS'01:320546 2 90'
p2839
aS'01:320546 1 90'
p2840
aS'01:342140 3 106'
p2841
aS'01:383557 2 90'
p2842
aS'01:424856 0 67'
p2843
aS'01:424856 2 88'
p2844
aS'01:424856 3 103'
p2845
aS'01:445525 2 86'
p2846
aS'01:445525 3 102'
p2847
aS'01:466614 0 65'
p2848
aS'01:466614 2 85'
p2849
aS'01:487724 2 84'
p2850
aS'01:508607 3 100'
p2851
aS'01:508607 2 83'
p2852
aS'01:591577 3 99'
p2853
aS'01:591577 1 92'
p2854
aS'01:612190 2 85'
p2855
aS'01:612190 3 97'
p2856
aS'01:612190 2 86'
p2857
aS'01:633014 1 93'
p2858
aS'01:633014 2 88'
p2859
aS'01:654311 2 90'
p2860
aS'01:675263 2 90'
p2861
aS'01:675263 0 69'
p2862
aS'01:675263 3 96'
p2863
aS'01:675263 0 71'
p2864
aS'01:675263 2 90'
p2865
aS'01:698036 2 90'
p2866
aS'01:698036 0 72'
p2867
aS'01:698036 0 74'
p2868
aS'01:719653 0 75'
p2869
aS'01:740420 2 90'
p2870
aS'01:740420 0 77'
p2871
aS'01:761605 0 79'
p2872
aS'01:761605 0 81'
p2873
aS'01:761605 2 90'
p2874
aS'01:761605 1 95'
p2875
aS'01:783591 0 83'
p2876
aS'01:783591 1 96'
p2877
aS'01:783591 2 90'
p2878
aS'01:783591 0 84'
p2879
aS'01:783591 3 95'
p2880
aS'01:806046 1 97'
p2881
aS'01:806046 0 85'
p2882
aS'01:806046 3 94'
p2883
aS'01:827620 1 98'
p2884
aS'01:827620 1 100'
p2885
aS'01:827620 2 90'
p2886
aS'01:827620 0 87'
p2887
aS'01:849615 0 89'
p2888
aS'01:849615 1 104'
p2889
aS'01:849615 0 90'
p2890
aS'01:849615 0 90'
p2891
aS'01:849615 1 108'
p2892
aS'01:872095 0 90'
p2893
aS'01:872095 1 109'
p2894
aS'01:872095 0 90'
p2895
aS'01:872095 1 111'
p2896
aS'01:894177 1 114'
p2897
aS'01:894177 1 116'
p2898
aS'01:894177 0 90'
p2899
aS'01:894177 1 117'
p2900
aS'01:916347 3 93'
p2901
aS'01:957679 1 119'
p2902
aS'01:957679 0 90'
p2903
aS'01:978389 1 120'
p2904
aS'01:999020 1 122'
p2905
aS'02:061040 0 90'
p2906
aS'02:102343 0 90'
p2907
aS'02:102343 1 122'
p2908
aS'02:122991 0 90'
p2909
aS'02:122991 3 96'
p2910
aS'02:122991 3 97'
p2911
aS'02:143943 3 99'
p2912
aS'02:164801 0 90'
p2913
aS'02:164801 1 124'
p2914
aS'02:164801 3 100'
p2915
aS'02:164801 1 125'
p2916
aS'02:164801 3 102'
p2917
aS'02:187462 1 127'
p2918
aS'02:187462 0 90'
p2919
aS'02:187462 1 129'
p2920
aS'02:187462 2 90'
p2921
aS'02:187462 2 90'
p2922
aS'02:210056 0 90'
p2923
aS'02:210056 3 103'
p2924
aS'02:210056 2 90'
p2925
aS'02:231552 3 104'
p2926
aS'02:231552 0 90'
p2927
aS'02:252579 3 106'
p2928
aS'02:252579 2 90'
p2929
aS'02:252579 1 130'
p2930
aS'02:252579 3 107'
p2931
aS'02:275002 1 127'
p2932
aS'02:275002 2 90'
p2933
aS'02:296134 3 109'
p2934
aS'02:358174 1 125'
p2935
aS'02:399425 3 106'
p2936
aS'02:420044 1 124'
p2937
aS'02:420044 2 90'
p2938
aS'02:440666 2 90'
p2939
aS'02:461213 2 88'
p2940
aS'02:461213 1 122'
p2941
aS'02:482297 2 86'
p2942
aS'02:482297 0 90'
p2943
aS'02:482297 2 85'
p2944
aS'02:545230 2 84'
p2945
aS'02:586520 2 83'
p2946
aS'02:627759 2 81'
p2947
aS'02:669115 2 79'
p2948
aS'02:669115 0 90'
p2949
aS'02:669115 3 109'
p2950
aS'02:689766 2 78'
p2951
aS'02:689766 3 109'
p2952
aS'02:689766 3 110'
p2953
aS'02:689766 2 76'
p2954
aS'02:710526 3 112'
p2955
aS'02:710526 2 75'
p2956
aS'02:731680 3 113'
p2957
aS'02:752537 0 90'
p2958
aS'02:752537 0 90'
p2959
aS'02:752537 1 125'
p2960
aS'02:752537 1 127'
p2961
aS'02:774594 1 129'
p2962
aS'02:774594 3 115'
p2963
aS'02:774594 1 130'
p2964
aS'02:774594 2 73'
p2965
aS'02:796624 0 90'
p2966
aS'02:796624 1 132'
p2967
aS'02:796624 1 133'
p2968
aS'02:796624 2 71'
p2969
aS'02:818865 2 71'
p2970
aS'02:839683 1 135'
p2971
aS'02:860523 2 69'
p2972
aS'02:860523 0 91'
p2973
aS'02:860523 3 116'
p2974
aS'02:964800 1 135'
p2975
aS'02:964800 3 118'
p2976
aS'02:985416 1 135'
p2977
aS'02:985416 1 133'
p2978
aS'03:088675 2 68'
p2979
aS'03:088675 1 132'
p2980
aS'03:088675 3 119'
p2981
aS'03:109324 2 66'
p2982
aS'03:109324 1 130'
p2983
aS'03:109324 3 120'
p2984
aS'03:130048 3 122'
p2985
aS'03:130048 1 129'
p2986
aS'03:150834 1 127'
p2987
aS'03:150834 1 125'
p2988
aS'03:171851 1 124'
p2989
aS'03:171851 1 122'
p2990
aS'03:234283 1 122'
p2991
aS'03:254877 1 120'
p2992
aS'03:275524 1 119'
p2993
aS'03:275524 1 117'
p2994
aS'03:296123 0 92'
p2995
aS'03:316818 1 116'
p2996
aS'03:316818 1 114'
p2997
aS'03:338115 1 113'
p2998
aS'03:338115 1 111'
p2999
aS'03:359275 1 110'
p3000
aS'03:359275 1 109'
p3001
aS'03:380482 1 108'
p3002
aS'03:401264 3 122'
p3003
aS'03:401264 1 106'
p3004
aS'03:401264 1 104'
p3005
aS'03:422775 1 103'
p3006
aS'03:422775 1 101'
p3007
aS'03:443913 1 100'
p3008
aS'03:443913 1 98'
p3009
aS'03:443913 0 91'
p3010
aS'03:443913 1 96'
p3011
aS'03:465961 0 90'
p3012
aS'03:465961 1 95'
p3013
aS'03:465961 0 90'
p3014
aS'03:570408 1 93'
p3015
aS'03:570408 1 92'
p3016
aS'03:611726 1 90'
p3017
aS'03:632344 1 90'
p3018
aS'03:735711 0 90'
p3019
aS'03:735711 3 120'
p3020
aS'03:756429 3 119'
p3021
aS'03:756429 3 118'
p3022
aS'03:777124 2 64'
p3023
aS'03:839071 3 116'
p3024
aS'03:859660 3 115'
p3025
aS'03:880276 2 63'
p3026
aS'03:880276 3 113'
p3027
aS'03:900931 3 112'
p3028
aS'03:900931 3 110'
p3029
aS'03:900931 2 61'
p3030
aS'03:921574 1 92'
p3031
aS'03:921574 3 109'
p3032
aS'03:942331 3 109'
p3033
aS'03:962975 3 107'
p3034
aS'03:962975 2 60'
p3035
aS'04:004183 3 106'
p3036
aS'04:004183 2 58'
p3037
aS'04:045440 2 57'
p3038
aS'04:148738 3 109'
p3039
aS'04:210659 2 56'
p3040
aS'04:231273 2 54'
p3041
aS'04:251895 3 109'
p3042
aS'04:272506 2 53'
p3043
aS'04:334548 1 93'
p3044
aS'04:355146 2 51'
p3045
aS'04:411871 1 95'
p3046
aS'04:432528 1 96'
p3047
aS'04:432528 1 97'
p3048
aS'04:432528 1 98'
p3049
aS'04:432528 3 110'
p3050
aS'04:475551 1 100'
p3051
aS'04:496133 1 101'
p3052
aS'04:496133 3 112'
p3053
aS'04:537876 3 113'
p3054
aS'04:558491 2 54'
p3055
aS'04:558491 3 115'
p3056
aS'04:579699 2 56'
p3057
aS'04:579699 1 103'
p3058
aS'04:579699 2 57'
p3059
aS'04:601200 3 112'
p3060
aS'04:601200 2 58'
p3061
aS'04:601200 2 60'
p3062
aS'04:622821 2 61'
p3063
aS'04:622821 2 63'
p3064
aS'04:644374 2 64'
p3065
aS'04:644374 3 110'
p3066
aS'04:644374 2 66'
p3067
aS'04:644374 3 109'
p3068
aS'04:666398 3 109'
p3069
aS'04:666398 2 68'
p3070
aS'04:687722 2 69'
p3071
aS'04:687722 3 107'
p3072
aS'04:708891 3 106'
p3073
aS'04:791623 3 109'
p3074
aS'04:812425 1 104'
p3075
aS'04:956999 2 71'
p3076
aS'04:956999 3 109'
p3077
aS'05:018923 3 107'
p3078
aS'05:039500 3 106'
p3079
aS'05:075612 1 101'
p3080
aS'05:075612 3 109'
p3081
aS'05:096956 1 100'
p3082
aS'05:096956 2 68'
p3083
aS'05:118058 2 66'
p3084
aS'05:303878 3 109'
p3085
aS'05:324516 1 98'
p3086
aS'05:365813 1 97'
p3087
aS'05:386485 1 96'
p3088
aS'05:407133 2 69'
p3089
aS'05:427723 2 71'
p3090
aS'05:427723 1 95'
p3091
aS'05:448323 2 71'
p3092
aS'05:448323 2 73'
p3093
aS'05:469004 2 75'
p3094
aS'05:469004 0 90'
p3095
aS'05:469004 2 76'
p3096
aS'05:469004 1 93'
p3097
aS'05:489670 1 92'
p3098
aS'05:489670 2 78'
p3099
aS'05:489670 3 110'
p3100
aS'05:530952 3 112'
p3101
aS'05:530952 1 90'
p3102
aS'05:551547 0 90'
p3103
aS'05:551547 2 79'
p3104
aS'05:572560 3 113'
p3105
aS'05:655259 1 93'
p3106
aS'05:655259 3 115'
p3107
aS'05:675881 3 116'
p3108
aS'05:820295 1 95'
p3109
aS'05:840893 3 113'
p3110
aS'05:861518 3 112'
p3111
aS'05:861518 3 110'
p3112
aS'05:882127 3 109'
p3113
aS'05:882127 3 109'
p3114
aS'05:902768 3 107'
p3115
aS'05:902768 1 97'
p3116
aS'05:902768 2 81'
p3117
aS'05:902768 1 98'
p3118
aS'05:902768 3 104'
p3119
aS'05:923420 1 100'
p3120
aS'05:923420 2 83'
p3121
aS'05:923420 1 101'
p3122
aS'05:923420 3 103'
p3123
aS'05:923420 1 103'
p3124
aS'05:923420 3 102'
p3125
aS'05:946288 1 104'
p3126
aS'05:946288 2 84'
p3127
aS'05:988034 1 106'
p3128
aS'06:008702 1 103'
p3129
aS'06:008702 1 101'
p3130
aS'06:029524 1 100'
p3131
aS'06:050303 1 98'
p3132
aS'06:355015 1 97'
p3133
aS'06:375603 3 106'
p3134
aS'06:479003 3 107'
p3135
aS'06:541015 1 96'
p3136
aS'06:742374 3 104'
p3137
aS'06:763027 3 103'
p3138
aS'06:804297 3 102'
p3139
aS'06:824940 3 100'
p3140
asS'name'
p3141
S'leftside2'
p3142
ssI9
(dp3143
S'data'
p3144
(lp3145
S'00:460331 3 90'
p3146
aS'00:542854 3 90'
p3147
aS'00:563448 3 90'
p3148
aS'00:584058 3 90'
p3149
aS'00:625322 2 90'
p3150
aS'00:645966 3 90'
p3151
aS'00:645966 2 90'
p3152
aS'00:666566 2 90'
p3153
aS'00:666566 3 90'
p3154
aS'00:666566 1 90'
p3155
aS'00:687152 2 90'
p3156
aS'00:687152 3 90'
p3157
aS'00:687152 2 90'
p3158
aS'00:708504 3 90'
p3159
aS'00:708504 2 90'
p3160
aS'00:729955 3 90'
p3161
aS'00:750767 2 90'
p3162
aS'00:771491 1 90'
p3163
aS'00:792296 0 90'
p3164
aS'00:792296 1 90'
p3165
aS'00:792296 2 90'
p3166
aS'00:792296 0 90'
p3167
aS'00:792296 1 90'
p3168
aS'00:792296 2 90'
p3169
aS'00:792296 0 90'
p3170
aS'00:792296 1 90'
p3171
aS'00:816455 0 90'
p3172
aS'00:816455 1 86'
p3173
aS'00:816455 2 88'
p3174
aS'00:816455 0 87'
p3175
aS'00:816455 1 84'
p3176
aS'00:816455 2 86'
p3177
aS'00:816455 0 85'
p3178
aS'00:840139 0 84'
p3179
aS'00:840139 1 82'
p3180
aS'00:840139 2 85'
p3181
aS'00:840139 0 83'
p3182
aS'00:862655 2 84'
p3183
aS'00:903954 1 84'
p3184
aS'00:903954 3 88'
p3185
aS'00:924644 1 86'
p3186
aS'00:924644 1 88'
p3187
aS'00:946020 3 86'
p3188
aS'00:966696 2 83'
p3189
aS'00:987288 0 85'
p3190
aS'00:987288 1 90'
p3191
aS'00:987288 3 85'
p3192
aS'01:008570 2 81'
p3193
aS'01:008570 3 84'
p3194
aS'01:008570 2 79'
p3195
aS'01:008570 3 83'
p3196
aS'01:030858 3 81'
p3197
aS'01:030858 2 78'
p3198
aS'01:030858 3 79'
p3199
aS'01:052507 2 75'
p3200
aS'01:052507 2 73'
p3201
aS'01:073527 1 86'
p3202
aS'01:073527 3 78'
p3203
aS'01:073527 2 71'
p3204
aS'01:095194 3 76'
p3205
aS'01:095194 2 71'
p3206
aS'01:095194 1 84'
p3207
aS'01:095194 2 69'
p3208
aS'01:095194 3 75'
p3209
aS'01:117668 0 83'
p3210
aS'01:117668 1 84'
p3211
aS'01:138725 0 81'
p3212
aS'01:159350 0 79'
p3213
aS'01:159350 0 77'
p3214
aS'01:159350 1 82'
p3215
aS'01:180696 0 75'
p3216
aS'01:180696 3 73'
p3217
aS'01:222242 3 71'
p3218
aS'01:222242 2 71'
p3219
aS'01:263750 1 80'
p3220
aS'01:263750 1 78'
p3221
aS'01:284475 3 71'
p3222
aS'01:284475 1 75'
p3223
aS'01:305759 1 73'
p3224
aS'01:305759 3 69'
p3225
aS'01:305759 1 71'
p3226
aS'01:327354 3 68'
p3227
aS'01:368610 1 71'
p3228
aS'01:409883 3 66'
p3229
aS'01:430518 3 64'
p3230
aS'01:430518 1 69'
p3231
aS'01:451202 2 69'
p3232
aS'01:451202 1 67'
p3233
aS'01:471987 1 65'
p3234
aS'01:471987 0 74'
p3235
aS'01:471987 3 63'
p3236
aS'01:471987 0 72'
p3237
aS'01:471987 1 64'
p3238
aS'01:494271 1 62'
p3239
aS'01:494271 1 60'
p3240
aS'01:494271 2 68'
p3241
aS'01:536477 2 66'
p3242
aS'01:680863 1 64'
p3243
aS'01:840969 2 64'
p3244
aS'01:840969 3 61'
p3245
aS'01:923597 3 60'
p3246
aS'01:964921 2 63'
p3247
aS'01:964921 1 58'
p3248
aS'01:964921 1 58'
p3249
aS'01:985576 0 71'
p3250
aS'01:985576 0 69'
p3251
aS'01:985576 1 54'
p3252
aS'01:985576 0 65'
p3253
aS'01:985576 1 49'
p3254
aS'02:006222 0 64'
p3255
aS'02:006222 1 47'
p3256
aS'02:026923 0 60'
p3257
aS'02:026923 1 45'
p3258
aS'02:026923 0 58'
p3259
aS'02:026923 1 45'
p3260
aS'02:026923 1 43'
p3261
aS'02:109904 1 45'
p3262
aS'02:109904 0 62'
p3263
aS'02:151137 1 47'
p3264
aS'02:151137 3 58'
p3265
aS'02:274870 1 49'
p3266
aS'02:274870 2 61'
p3267
aS'02:455428 1 51'
p3268
aS'02:476069 3 57'
p3269
aS'02:517358 3 56'
p3270
aS'02:878568 3 54'
p3271
aS'02:919830 3 53'
p3272
aS'02:919830 3 51'
p3273
aS'02:940435 2 60'
p3274
aS'02:961024 3 50'
p3275
asS'name'
p3276
S'a1'
p3277
ssI10
(dp3278
S'data'
p3279
(lp3280
S'02:961024 2 122'
p3281
aS'00:017137 3 109'
p3282
aS'00:280237 3 112'
p3283
aS'00:404076 3 113'
p3284
aS'00:605301 3 115'
p3285
aS'00:667166 1 91'
p3286
aS'01:291773 2 123'
p3287
aS'01:332996 2 125'
p3288
aS'01:353601 2 127'
p3289
aS'01:472231 2 128'
p3290
aS'01:493114 2 130'
p3291
aS'01:637750 3 116'
p3292
aS'01:720308 3 113'
p3293
aS'01:720308 3 112'
p3294
aS'01:818295 3 115'
p3295
aS'01:839046 2 127'
p3296
aS'01:839046 3 112'
p3297
aS'01:859987 3 110'
p3298
aS'01:880776 3 109'
p3299
aS'01:922221 2 125'
p3300
aS'01:922221 3 109'
p3301
aS'01:942910 3 107'
p3302
aS'01:963692 3 106'
p3303
asS'name'
p3304
S'broken'
p3305
ssI11
(dp3306
S'data'
p3307
(lp3308
S'00:015830 1 98'
p3309
aS'00:015830 3 138'
p3310
aS'00:015830 3 137'
p3311
aS'00:015830 3 136'
p3312
aS'00:038296 3 135'
p3313
aS'00:038296 3 132'
p3314
aS'00:038296 3 131'
p3315
aS'00:059883 3 129'
p3316
aS'00:059883 3 128'
p3317
aS'00:142946 3 131'
p3318
aS'00:163521 3 132'
p3319
aS'00:184118 3 134'
p3320
aS'00:184118 3 135'
p3321
aS'00:204859 3 136'
p3322
aS'00:204859 3 137'
p3323
aS'00:204859 3 138'
p3324
aS'00:225472 3 140'
p3325
aS'00:246113 3 141'
p3326
aS'00:266723 3 143'
p3327
aS'00:287331 1 101'
p3328
aS'00:307925 1 102'
p3329
aS'00:349205 0 91'
p3330
aS'00:349205 1 104'
p3331
aS'00:349205 3 144'
p3332
aS'00:349205 2 111'
p3333
aS'00:349205 1 105'
p3334
aS'00:391329 0 90'
p3335
aS'00:391329 1 107'
p3336
aS'00:432920 0 90'
p3337
aS'00:453507 2 113'
p3338
aS'00:453507 2 115'
p3339
aS'00:453507 3 145'
p3340
aS'00:474398 2 116'
p3341
aS'00:495045 2 118'
p3342
aS'00:536322 3 147'
p3343
aS'00:660052 2 115'
p3344
aS'00:701223 3 148'
p3345
aS'00:721856 2 113'
p3346
aS'00:840446 2 111'
p3347
aS'00:861070 1 104'
p3348
aS'00:861070 1 102'
p3349
aS'00:922955 2 110'
p3350
aS'00:943569 2 109'
p3351
aS'00:984869 2 107'
p3352
aS'00:984869 3 145'
p3353
aS'01:144959 2 106'
p3354
aS'01:449448 3 144'
p3355
aS'01:470103 3 143'
p3356
aS'01:490710 1 101'
p3357
aS'01:490710 3 141'
p3358
asS'name'
p3359
S'a2'
p3360
ss.